(dp0
S'input'
p1
(dp2
S'bytes_to_trash'
p3
(lp4
I12
aI13
aI14
aI15
asS'code'
p5
S'# config:{"bytes_to_trash": "12,13,14,15", "arch":2}\nbl .fn\nmov r1, 0xaaaa\n.end:\n    b .end\n.fn:\n    bx lr\n    mov r0, 0xdead\n'
p6
sS'initial_code'
p7
(lp8
I1
aI0
aI0
aI235
aI170
aI26
aI10
aI227
aI254
aI255
aI255
aI234
aI30
aI255
aI47
aI225
aI173
aI14
aI13
aI227
asS'initial_bytes'
p9
(lp10
I30
aI255
aI47
aI225
asS'name'
p11
S'bx.s'
p12
ssS'OR'
p13
(dp14
I0
(dp15
cglitchresistor.emulator
Result
p16
(I8
tp17
Rp18
I1
ssI1
(dp19
g18
I22
sg16
(I1
tp20
Rp21
I2
sg16
(I3
tp22
Rp23
I1
sg16
(I4
tp24
Rp25
I4
sg16
(I7
tp26
Rp27
I3
ssI2
(dp28
g21
I53
sg16
(I2
tp29
Rp30
I3
sg23
I34
sg25
I97
sg27
I78
sg18
I231
ssI3
(dp31
g21
I676
sg30
I78
sg23
I540
sg25
I1149
sg27
I977
sg18
I1540
ssI4
(dp32
g21
I5529
sg30
I974
sg23
I5407
sg25
I8885
sg27
I7850
sg18
I7315
ssI5
(dp33
g21
I32602
sg30
I7776
sg23
I38650
sg25
I50565
sg27
I45449
sg18
I26334
ssI6
(dp34
g21
I147762
sg30
I44575
sg23
I211105
sg25
I226219
sg27
I201918
sg18
I74613
ssI7
(dp35
g21
I536089
sg30
I195339
sg23
I919219
sg25
I828906
sg27
I715759
sg18
I170544
ssI8
(dp36
g21
I1601606
sg30
I680317
sg23
I3283235
sg25
I2555251
sg27
I2078121
sg18
I319770
ssI9
(dp37
g21
I4024495
sg30
I1932667
sg23
I9815066
sg25
I6745420
sg27
I5033732
sg18
I497420
ssI10
(dp38
g21
I8649332
sg30
I4561084
sg23
I24920754
sg25
I15425476
sg27
I10308948
sg18
I646646
ssI11
(dp39
g21
I16120864
sg30
I9061195
sg23
I54329495
sg25
I30782191
sg27
I18025303
sg18
I705432
ssI12
(dp40
g21
I26364781
sg30
I15300681
sg23
I102533587
sg25
I53845734
sg27
I27101411
sg18
I646646
ssI13
(dp41
g21
I38209399
sg30
I22116133
sg23
I168545885
sg25
I82786249
sg27
I35218514
sg18
I497420
ssI14
(dp42
g21
I49457285
sg30
I27502158
sg23
I242420829
sg25
I112035780
sg27
I39699778
sg18
I319770
ssI15
(dp43
g21
I57487863
sg30
I29522846
sg23
I306086276
sg25
I133537244
sg27
I38917947
sg18
I170544
ssI16
(dp44
g21
I60172316
sg30
I27413010
sg23
I340010795
sg25
I140161974
sg27
I33247682
sg18
I74613
ssI17
(dp45
g21
I56708464
sg30
I22034414
sg23
I332700013
sg25
I129436436
sg27
I24817059
sg18
I26334
ssI18
(dp46
g21
I47989421
sg30
I15326027
sg23
I286860670
sg25
I104988281
sg27
I16263886
sg18
I7315
ssI19
(dp47
g21
I36288100
sg30
I9210212
sg23
I217825386
sg25
I74595995
sg27
I9452367
sg18
I1540
ssI20
(dp48
g21
I24358667
sg30
I4768544
sg23
I145452829
sg25
I46247201
sg27
I4965368
sg18
I231
ssI21
(dp49
g21
I14400704
sg30
I2117610
sg23
I85196300
sg25
I24882231
sg27
I2427613
sg18
I22
ssI22
(dp50
g21
I7429676
sg30
I801251
sg23
I43610347
sg25
I11532059
sg27
I1138906
sg18
I1
ssI23
(dp51
g21
I3309439
sg30
I255783
sg23
I19407675
sg25
I4558074
sg27
I517829
ssI24
(dp52
g21
I1256430
sg30
I67873
sg23
I7455889
sg25
I1515655
sg27
I222453
ssI25
(dp53
g21
I400063
sg30
I14631
sg23
I2449096
sg25
I416124
sg27
I85942
ssI26
(dp54
g21
I104618
sg30
I2470
sg23
I678926
sg25
I91858
sg27
I28320
ssI27
(dp55
g21
I21832
sg30
I307
sg23
I155987
sg25
I15673
sg27
I7577
ssI28
(dp56
g21
I3487
sg30
I25
sg23
I28945
sg25
I1940
sg27
I1563
ssI29
(dp57
g21
I399
sg30
I1
sg23
I4173
sg25
I155
sg27
I232
ssI30
(dp58
g21
I29
sg23
I439
sg25
I6
sg27
I22
ssI31
(dp59
g21
I1
sg23
I30
sg27
I1
ssI32
(dp60
g23
I1
sss.