(dp0
S'AND'
p1
(dp2
I0
(dp3
cglitchresistor.emulator
Result
p4
(I1
tp5
Rp6
I1
ssI1
(dp7
g6
I32
ssI2
(dp8
g6
I496
ssI3
(dp9
g6
I4960
ssI4
(dp10
g4
(I8
tp11
Rp12
I1
sg6
I35959
ssI5
(dp13
g12
I22
sg6
I201351
sg4
(I4
tp14
Rp15
I3
ssI6
(dp16
g12
I233
sg6
I905892
sg15
I67
ssI7
(dp17
g12
I1586
sg6
I3363552
sg15
I718
ssI8
(dp18
g12
I7822
sg6
I10505557
sg15
I4921
ssI9
(dp19
g12
I29900
sg6
I27994633
sg15
I24267
ssI10
(dp20
g12
I92599
sg6
I64327758
sg15
I91883
ssI11
(dp21
g12
I239866
sg6
I128506105
sg15
I278509
ssI12
(dp22
g12
I532290
sg6
I224564503
sg15
I696047
ssI13
(dp23
g12
I1030238
sg6
I344877018
sg15
I1466344
ssI14
(dp24
g12
I1761870
sg6
I467025282
sg15
I2648448
ssI15
(dp25
g12
I2685916
sg6
I558883347
sg15
I4153457
ssI16
(dp26
g12
I3670249
sg6
I591705315
sg15
I5704826
ssI17
(dp27
g12
I4509080
sg6
I554318882
sg15
I6894758
ssI18
(dp28
g12
I4985182
sg6
I459111212
sg15
I7339206
ssI19
(dp29
g12
I4954820
sg6
I335553738
sg15
I6865042
ssI20
(dp30
g12
I4413149
sg6
I215764013
sg15
I5615678
ssI21
(dp31
g12
I3503106
sg6
I121531355
sg15
I3990019
ssI22
(dp32
g12
I2458885
sg6
I59611608
sg15
I2441747
ssI23
(dp33
g12
I1510938
sg6
I25263798
sg15
I1274064
ssI24
(dp34
g12
I803000
sg6
I9155367
sg15
I559933
ssI25
(dp35
g12
I363836
sg6
I2797893
sg15
I204127
ssI26
(dp36
g12
I138139
sg6
I707542
sg15
I60511
ssI27
(dp37
g12
I43010
sg6
I144173
sg15
I14193
ssI28
(dp38
g12
I10672
sg6
I22757
sg15
I2531
ssI29
(dp39
g12
I2026
sg6
I2612
sg15
I322
ssI30
(dp40
g12
I276
sg6
I194
sg15
I26
ssI31
(dp41
g12
I24
sg6
I7
sg15
I1
ssI32
(dp42
g12
I1
sssS'input'
p43
(dp44
S'bytes_to_trash'
p45
(lp46
I4
aI5
aI6
aI7
asS'code'
p47
S'# config:{"bytes_to_trash": "4,5,6,7", "arch":2}\nadr r0, .good\nmov pc, r0\nmov r0, 0xdead\n.good:\nmov r1, 0xaaaa\n'
p48
sS'initial_code'
p49
(lp50
I4
aI0
aI143
aI226
aI0
aI240
aI160
aI225
aI173
aI14
aI13
aI227
aI170
aI26
aI10
aI227
asS'initial_bytes'
p51
(lp52
I0
aI240
aI160
aI225
asS'name'
p53
S'mov.s'
p54
ss.