(dp0
S'AND'
p1
(dp2
I0
(dp3
cglitchresistor.emulator
Result
p4
(I1
tp5
Rp6
I1
ssI1
(dp7
g6
I32
ssI2
(dp8
g6
I493
sg4
(I7
tp9
Rp10
I3
ssI3
(dp11
g6
I4883
sg4
(I2
tp12
Rp13
I3
sg10
I74
ssI4
(dp14
g6
I35006
sg13
I74
sg10
I880
ssI5
(dp15
g6
I193758
sg13
I879
sg4
(I4
tp16
Rp17
I4
sg10
I6735
ssI6
(dp18
g6
I862134
sg13
I6701
sg17
I84
sg10
I37273
ssI7
(dp19
g6
I3169356
sg13
I36876
sg17
I856
sg10
I158768
ssI8
(dp20
g6
I9813199
sg13
I156264
sg17
I5568
sg10
I543269
ssI9
(dp21
g4
(I8
tp22
Rp23
I1
sg6
I25951903
sg13
I531346
sg17
I26159
sg10
I1539391
ssI10
(dp24
g23
I20
sg6
I59246258
sg13
I1492194
sg17
I95018
sg10
I3678750
ssI11
(dp25
g23
I191
sg6
I117668200
sg13
I3536181
sg17
I277323
sg10
I7542585
ssI12
(dp26
g23
I1161
sg6
I204498102
sg13
I7189754
sg17
I670763
sg10
I13433060
ssI13
(dp27
g23
I5055
sg6
I312316328
sg13
I12704901
sg17
I1375889
sg10
I20971427
ssI14
(dp28
g23
I16834
sg6
I420397627
sg13
I19703019
sg17
I2433248
sg10
I28884872
ssI15
(dp29
g23
I44745
sg6
I499694041
sg13
I26996986
sg17
I3755582
sg10
I35231366
ssI16
(dp30
g23
I97869
sg6
I524973837
sg13
I32806464
sg17
I5101992
sg10
I38100228
ssI17
(dp31
g23
I180234
sg6
I487521976
sg13
I35391756
sg17
I6130563
sg10
I36498191
ssI18
(dp32
g23
I284240
sg6
I399904261
sg13
I33846524
sg17
I6522342
sg10
I30878233
ssI19
(dp33
g23
I388246
sg6
I289291865
sg13
I28594221
sg17
I6135520
sg10
I22963748
ssI20
(dp34
g23
I461890
sg6
I184098551
sg13
I21230334
sg17
I5084739
sg10
I14917326
ssI21
(dp35
g23
I478686
sg6
I102694621
sg13
I13762441
sg17
I3690787
sg10
I8397945
ssI22
(dp36
g23
I430236
sg6
I49968470
sg13
I7727379
sg17
I2329256
sg10
I4056899
ssI23
(dp37
g23
I332690
sg6
I21066861
sg13
I3722136
sg17
I1266061
sg10
I1661052
ssI24
(dp38
g23
I218994
sg6
I7626100
sg13
I1520024
sg17
I585727
sg10
I567455
ssI25
(dp39
g23
I121125
sg6
I2340649
sg13
I518466
sg17
I227173
sg10
I158443
ssI26
(dp40
g23
I55404
sg6
I598404
sg13
I144834
sg17
I72403
sg10
I35147
ssI27
(dp41
g23
I20539
sg6
I124194
sg13
I32251
sg17
I18448
sg10
I5944
ssI28
(dp42
g23
I6005
sg6
I20125
sg13
I5502
sg17
I3610
sg10
I718
ssI29
(dp43
g23
I1331
sg6
I2390
sg13
I675
sg17
I509
sg10
I55
ssI30
(dp44
g23
I210
sg6
I185
sg13
I53
sg17
I46
sg10
I2
ssI31
(dp45
g23
I21
sg6
I7
sg13
I2
sg17
I2
ssI32
(dp46
g23
I1
sssS'input'
p47
(dp48
S'bytes_to_trash'
p49
(lp50
I16
aI17
aI18
aI19
asS'code'
p51
S'# config:{"bytes_to_trash": "16,17,18,19", "arch":2}\nbl .next\nmov r1, 0xaaaa\n.end:\n    b .end\n.next:\n    push {lr}\n    pop {pc}\n    mov r0, 0xdead\n'
p52
sS'initial_code'
p53
(lp54
I1
aI0
aI0
aI235
aI170
aI26
aI10
aI227
aI254
aI255
aI255
aI234
aI4
aI224
aI45
aI229
aI4
aI240
aI157
aI228
aI173
aI14
aI13
aI227
asS'initial_bytes'
p55
(lp56
I4
aI240
aI157
aI228
asS'name'
p57
S'pop.s'
p58
ss.