(dp0
S'input'
p1
(dp2
S'bytes_to_trash'
p3
(lp4
I16
aI17
aI18
aI19
asS'code'
p5
S'# config:{"bytes_to_trash": "16,17,18,19", "arch":2}\nbl .next\nmov r1, 0xaaaa\n.end:\n    b .end\n.next:\n    push {lr}\n    pop {pc}\n    mov r0, 0xdead\n'
p6
sS'initial_code'
p7
(lp8
I1
aI0
aI0
aI235
aI170
aI26
aI10
aI227
aI254
aI255
aI255
aI234
aI4
aI224
aI45
aI229
aI4
aI240
aI157
aI228
aI173
aI14
aI13
aI227
asS'initial_bytes'
p9
(lp10
I4
aI240
aI157
aI228
asS'name'
p11
S'pop.s'
p12
ssS'OR'
p13
(dp14
I0
(dp15
cglitchresistor.emulator
Result
p16
(I8
tp17
Rp18
I1
ssI1
(dp19
g18
I27
sg16
(I1
tp20
Rp21
I1
sg16
(I3
tp22
Rp23
I1
sg16
(I4
tp24
Rp25
I3
ssI2
(dp26
g18
I350
sg21
I29
sg16
(I2
tp27
Rp28
I9
sg23
I33
sg25
I75
ssI3
(dp29
g18
I2903
sg21
I406
sg28
I204
sg23
I521
sg25
I926
ssI4
(dp30
g21
I3655
sg28
I2243
sg23
I5252
sg25
I7500
sg16
(I7
tp31
Rp32
I2
sg18
I17308
ssI5
(dp33
g21
I23778
sg28
I15921
sg23
I38043
sg25
I44620
sg32
I34
sg18
I78980
ssI6
(dp34
g21
I119106
sg28
I81894
sg23
I211191
sg25
I206965
sg32
I275
sg18
I286761
ssI7
(dp35
g21
I477945
sg28
I324868
sg23
I935551
sg25
I775805
sg32
I1416
sg18
I850271
ssI8
(dp36
g21
I1578331
sg28
I1032960
sg23
I3399156
sg25
I2405693
sg32
I5252
sg18
I2096908
ssI9
(dp37
g21
I4372897
sg28
I2701849
sg23
I10330207
sg25
I6270282
sg32
I15092
sg18
I4358473
ssI10
(dp38
g21
I10311246
sg28
I5921483
sg23
I26642365
sg25
I13892413
sg32
I35365
sg18
I7709368
ssI11
(dp39
g21
I20919580
sg28
I11020410
sg23
I58951160
sg25
I26377098
sg32
I70262
sg18
I11685970
ssI12
(dp40
g21
I36824680
sg28
I17586860
sg23
I112835919
sg25
I43169893
sg32
I121800
sg18
I15253688
ssI13
(dp41
g21
I56609094
sg28
I24233111
sg23
I187988966
sg25
I61157617
sg32
I187536
sg18
I17197276
ssI14
(dp42
g21
I76374813
sg28
I28966601
sg23
I273863605
sg25
I75203320
sg32
I258235
sg18
I16769026
ssI15
(dp43
g21
I90767199
sg28
I30124603
sg23
I349988589
sg25
I80386485
sg32
I317370
sg18
I14138474
ssI16
(dp44
g21
I95262390
sg28
I27299881
sg23
I393176765
sg25
I74708858
sg32
I345527
sg18
I10286969
ssI17
(dp45
g21
I88419635
sg28
I21571297
sg23
I388671867
sg25
I60296040
sg32
I329968
sg18
I6433913
ssI18
(dp46
g21
I72600881
sg28
I14861128
sg23
I338117387
sg25
I42144847
sg32
I273567
sg18
I3437790
ssI19
(dp47
g21
I52686582
sg28
I8922479
sg23
I258618653
sg25
I25395869
sg32
I195002
sg18
I1555015
ssI20
(dp48
g21
I33714551
sg28
I4664216
sg23
I173603722
sg25
I13104186
sg32
I118481
sg18
I587684
ssI21
(dp49
g21
I18948710
sg28
I2119058
sg23
I101978715
sg25
I5734967
sg32
I60918
sg18
I182112
ssI22
(dp50
g21
I9298740
sg28
I833541
sg23
I52208017
sg25
I2100571
sg32
I26350
sg18
I45021
ssI23
(dp51
g21
I3951399
sg28
I281693
sg23
I23165645
sg25
I632010
sg32
I9534
sg18
I8519
ssI24
(dp52
g21
I1437663
sg28
I80611
sg23
I8843934
sg25
I152081
sg32
I2857
sg18
I1154
ssI25
(dp53
g21
I441099
sg28
I19050
sg23
I2876797
sg25
I28119
sg32
I692
sg18
I99
ssI26
(dp54
g21
I111796
sg28
I3568
sg23
I786951
sg25
I3745
sg32
I128
sg18
I4
ssI27
(dp55
g21
I22744
sg28
I495
sg23
I177802
sg25
I319
sg32
I16
ssI28
(dp56
g21
I3562
sg28
I45
sg23
I32339
sg25
I13
sg32
I1
ssI29
(dp57
g21
I402
sg28
I2
sg23
I4556
ssI30
(dp58
g21
I29
sg23
I467
ssI31
(dp59
g21
I1
sg23
I31
ssI32
(dp60
g23
I1
sss.