(dp0
S'AND'
p1
(dp2
I0
(dp3
cglitchresistor.emulator
Result
p4
(I1
tp5
Rp6
I1
ssI1
(dp7
g6
I31
sg4
(I4
tp8
Rp9
I1
ssI2
(dp10
g6
I465
sg9
I31
ssI3
(dp11
g6
I4495
sg9
I465
ssI4
(dp12
g6
I31465
sg9
I4495
ssI5
(dp13
g6
I169911
sg9
I31465
ssI6
(dp14
g4
(I8
tp15
Rp16
I1
sg6
I736281
sg9
I169910
ssI7
(dp17
g16
I26
sg6
I2629575
sg9
I736255
ssI8
(dp18
g16
I325
sg6
I7888725
sg9
I2629250
ssI9
(dp19
g16
I2600
sg6
I20160075
sg9
I7886125
ssI10
(dp20
g16
I14950
sg6
I44352165
sg9
I20145125
ssI11
(dp21
g16
I65780
sg6
I84672315
sg9
I44286385
ssI12
(dp22
g16
I230230
sg6
I141120525
sg9
I84442085
ssI13
(dp23
g16
I657800
sg6
I206253075
sg9
I140462725
ssI14
(dp24
g16
I1562275
sg6
I265182525
sg9
I204690800
ssI15
(dp25
g16
I3124550
sg6
I300540195
sg9
I262057975
ssI16
(dp26
g16
I5311735
sg6
I300540195
sg9
I295228460
ssI17
(dp27
g16
I7726160
sg6
I265182525
sg9
I292814035
ssI18
(dp28
g16
I9657700
sg6
I206253075
sg9
I255524825
ssI19
(dp29
g16
I10400600
sg6
I141120525
sg9
I195852475
ssI20
(dp30
g16
I9657700
sg6
I84672315
sg9
I131462825
ssI21
(dp31
g16
I7726160
sg6
I44352165
sg9
I76946155
ssI22
(dp32
g16
I5311735
sg6
I20160075
sg9
I39040430
ssI23
(dp33
g16
I3124550
sg6
I7888725
sg9
I17035525
ssI24
(dp34
g16
I1562275
sg6
I2629575
sg9
I6326450
ssI25
(dp35
g16
I657800
sg6
I736281
sg9
I1971775
ssI26
(dp36
g16
I230230
sg6
I169911
sg9
I506051
ssI27
(dp37
g16
I65780
sg6
I31465
sg9
I104131
ssI28
(dp38
g16
I14950
sg6
I4495
sg9
I16515
ssI29
(dp39
g16
I2600
sg6
I465
sg9
I1895
ssI30
(dp40
g16
I325
sg6
I31
sg9
I140
ssI31
(dp41
g16
I26
sg6
I1
sg9
I5
ssI32
(dp42
g16
I1
sssS'input'
p43
(dp44
S'bytes_to_trash'
p45
(lp46
I4
aI5
aI6
aI7
asS'code'
p47
S'# config:{"bytes_to_trash": "4,5,6,7", "arch":3}\nli $ra, 0x1014\njr $ra\n.glitched:\nli $t1, 0xdead\nb .glitched\nli $t2, 0xaaaa\n#jr $ra\n'
p48
sS'initial_code'
p49
(lp50
I36
aI31
aI16
aI20
aI3
aI224
aI0
aI8
aI0
aI0
aI0
aI0
aI52
aI9
aI222
aI173
aI16
aI0
aI255
aI254
aI0
aI0
aI0
aI0
aI52
aI10
aI170
aI170
asS'initial_bytes'
p51
(lp52
I3
aI224
aI0
aI8
asS'name'
p53
S'jr.s'
p54
ss.