(dp0
S'AND'
p1
(dp2
I0
(dp3
cglitchresistor.emulator
Result
p4
(I1
tp5
Rp6
I1
ssI1
(dp7
g6
I32
ssI2
(dp8
g4
(I8
tp9
Rp10
I1
sg6
I495
ssI3
(dp11
g10
I30
sg6
I4930
ssI4
(dp12
g10
I427
sg6
I35533
ssI5
(dp13
g10
I4016
sg6
I197360
ssI6
(dp14
g10
I27006
sg6
I879186
ssI7
(dp15
g10
I139815
sg6
I3226041
ssI8
(dp16
g10
I577653
sg6
I9940647
ssI9
(dp17
g10
I1955635
sg6
I26093165
ssI10
(dp18
g10
I5526478
sg6
I58985762
ssI11
(dp19
g10
I13217529
sg6
I115806951
ssI12
(dp20
g10
I27010416
sg6
I198782424
ssI13
(dp21
g10
I47523262
sg6
I299850338
ssI14
(dp22
g10
I72392944
sg6
I399042656
ssI15
(dp23
g10
I95841929
sg6
I469880791
ssI16
(dp24
g10
I110600863
sg6
I490479527
ssI17
(dp25
g10
I111450578
sg6
I454272142
ssI18
(dp26
g10
I98173192
sg6
I373262408
ssI19
(dp27
g10
I75636132
sg6
I271737468
ssI20
(dp28
g10
I50964173
sg6
I174828667
ssI21
(dp29
g10
I30033553
sg6
I98990927
ssI22
(dp30
g10
I15471756
sg6
I49040484
ssI23
(dp31
g10
I6966187
sg6
I21082613
ssI24
(dp32
g10
I2738158
sg6
I7780142
ssI25
(dp33
g10
I937102
sg6
I2428754
ssI26
(dp34
g10
I277439
sg6
I628753
ssI27
(dp35
g10
I70039
sg6
I131337
ssI28
(dp36
g10
I14704
sg6
I21256
ssI29
(dp37
g10
I2460
sg6
I2500
ssI30
(dp38
g10
I306
sg6
I190
ssI31
(dp39
g10
I25
sg6
I7
ssI32
(dp40
g10
I1
sssS'input'
p41
(dp42
S'bytes_to_trash'
p43
(lp44
I8
aI9
aI10
aI11
asS'code'
p45
S'# config:{"bytes_to_trash": "8,9,10,11", "arch":3}\nli $t3, 0x1234\nli $t4, 0x1234\nbeq $t3, $t4, .good\n.glitch:\n\tli $t1, 0xdead\n\tb .glitch\n.good:\n\tli $t2, 0xaaaa\n'
p46
sS'initial_code'
p47
(lp48
I36
aI11
aI18
aI52
aI36
aI12
aI18
aI52
aI17
aI108
aI0
aI4
aI0
aI0
aI0
aI0
aI52
aI9
aI222
aI173
aI16
aI0
aI255
aI254
aI0
aI0
aI0
aI0
aI52
aI10
aI170
aI170
asS'initial_bytes'
p49
(lp50
I17
aI108
aI0
aI4
asS'name'
p51
S'beq.s'
p52
ss.