(dp0
S'AND'
p1
(dp2
I0
(dp3
cglitchresistor.emulator
Result
p4
(I1
tp5
Rp6
I1
ssI1
(dp7
g6
I32
ssI2
(dp8
g4
(I8
tp9
Rp10
I1
sg6
I495
ssI3
(dp11
g10
I30
sg6
I4930
ssI4
(dp12
g10
I435
sg6
I35525
ssI5
(dp13
g10
I4060
sg6
I197316
ssI6
(dp14
g10
I27405
sg6
I878787
ssI7
(dp15
g10
I142506
sg6
I3223350
ssI8
(dp16
g10
I593775
sg6
I9924525
ssI9
(dp17
g10
I2035800
sg6
I26013000
ssI10
(dp18
g10
I5852925
sg6
I58659315
ssI11
(dp19
g10
I14307150
sg6
I114717330
ssI12
(dp20
g10
I30045015
sg6
I195747825
ssI13
(dp21
g10
I54627300
sg6
I292746300
ssI14
(dp22
g10
I86493225
sg6
I384942375
ssI15
(dp23
g10
I119759850
sg6
I445962870
ssI16
(dp24
g10
I145422675
sg6
I455657715
ssI17
(dp25
g10
I155117520
sg6
I410605200
ssI18
(dp26
g10
I145422675
sg6
I326012925
ssI19
(dp27
g10
I119759850
sg6
I227613750
ssI20
(dp28
g10
I86493225
sg6
I139299615
ssI21
(dp29
g10
I54627300
sg6
I74397180
ssI22
(dp30
g10
I30045015
sg6
I34467225
ssI23
(dp31
g10
I14307150
sg6
I13741650
ssI24
(dp32
g10
I5852925
sg6
I4665375
ssI25
(dp33
g10
I2035800
sg6
I1330056
ssI26
(dp34
g10
I593775
sg6
I312417
ssI27
(dp35
g10
I142506
sg6
I58870
ssI28
(dp36
g10
I27405
sg6
I8555
ssI29
(dp37
g10
I4060
sg6
I900
ssI30
(dp38
g10
I435
sg6
I61
ssI31
(dp39
g10
I30
sg6
I2
ssI32
(dp40
g10
I1
sssS'input'
p41
(dp42
S'bytes_to_trash'
p43
(lp44
I4
aI5
aI6
aI7
asS'code'
p45
S'# config:{"bytes_to_trash": "4,5,6,7", "arch":3}\nli $t3, 0\nbeqz $t3, .good\n.glitched:\n\tli $t1, 0xdead\n\tb .glitched\n.good:\n\tli $t2, 0xaaaa\n'
p46
sS'initial_code'
p47
(lp48
I36
aI11
aI0
aI0
aI17
aI96
aI0
aI4
aI0
aI0
aI0
aI0
aI52
aI9
aI222
aI173
aI16
aI0
aI255
aI254
aI0
aI0
aI0
aI0
aI52
aI10
aI170
aI170
asS'initial_bytes'
p49
(lp50
I17
aI96
aI0
aI4
asS'name'
p51
S'beqz.s'
p52
ss.