(dp0
S'AND'
p1
(dp2
I0
(dp3
cglitchresistor.emulator
Result
p4
(I1
tp5
Rp6
I1
ssI1
(dp7
g6
I31
sg4
(I4
tp8
Rp9
I1
ssI2
(dp10
g4
(I8
tp11
Rp12
I1
sg6
I465
sg9
I30
ssI3
(dp13
g12
I29
sg6
I4496
sg9
I435
ssI4
(dp14
g12
I406
sg6
I31494
sg9
I4060
ssI5
(dp15
g12
I3653
sg6
I170318
sg9
I27405
ssI6
(dp16
g12
I23726
sg6
I739960
sg9
I142506
ssI7
(dp17
g12
I118456
sg6
I2653625
sg9
I593775
ssI8
(dp18
g12
I472745
sg6
I8009755
sg9
I2035800
ssI9
(dp19
g12
I1548430
sg6
I20647445
sg9
I5852925
ssI10
(dp20
g12
I4241315
sg6
I45963775
sg9
I14307150
ssI11
(dp21
g12
I9850555
sg6
I89128910
sg9
I30045015
ssI12
(dp22
g12
I19602440
sg6
I151563100
sg9
I54627300
ssI13
(dp23
g12
I33692815
sg6
I227187560
sg9
I86493225
ssI14
(dp24
g12
I50333660
sg6
I301342090
sg9
I119759850
ssI15
(dp25
g12
I65676730
sg6
I354623315
sg9
I145422675
ssI16
(dp26
g12
I75144335
sg6
I370818535
sg9
I155117520
ssI17
(dp27
g12
I75627220
sg6
I344672825
sg9
I145422675
ssI18
(dp28
g12
I67121015
sg6
I284554735
sg9
I119759850
ssI19
(dp29
g12
I52638835
sg6
I208241540
sg9
I86493225
ssI20
(dp30
g12
I36528830
sg6
I134636710
sg9
I54627300
ssI21
(dp31
g12
I22444435
sg6
I76535030
sg9
I30045015
ssI22
(dp32
g12
I12202190
sg6
I38002900
sg9
I14307150
ssI23
(dp33
g12
I5854420
sg6
I16341455
sg9
I5852925
ssI24
(dp34
g12
I2465255
sg6
I6017245
sg9
I2035800
ssI25
(dp35
g12
I902590
sg6
I1869491
sg9
I593775
ssI26
(dp36
g12
I283205
sg6
I480481
sg9
I142506
ssI27
(dp37
g12
I74581
sg6
I99390
sg9
I27405
ssI28
(dp38
g12
I16004
sg6
I15896
sg9
I4060
ssI29
(dp39
g12
I2681
sg6
I1844
sg9
I435
ssI30
(dp40
g12
I328
sg6
I138
sg9
I30
ssI31
(dp41
g12
I26
sg6
I5
sg9
I1
ssI32
(dp42
g12
I1
sssS'input'
p43
(dp44
S'bytes_to_trash'
p45
(lp46
I4
aI5
aI6
aI7
asS'code'
p47
S'# config:{"bytes_to_trash": "4,5,6,7", "arch":3}\nli $t3, 0x1234\nbgtz $t3, .good\n.glitch:\n\tli $t1, 0xdead\n\tb .glitch\n.good:\n\tli $t2, 0xaaaa\n'
p48
sS'initial_code'
p49
(lp50
I36
aI11
aI18
aI52
aI29
aI96
aI0
aI4
aI0
aI0
aI0
aI0
aI52
aI9
aI222
aI173
aI16
aI0
aI255
aI254
aI0
aI0
aI0
aI0
aI52
aI10
aI170
aI170
asS'initial_bytes'
p51
(lp52
I29
aI96
aI0
aI4
asS'name'
p53
S'bgtz.s'
p54
ss.