(dp0
S'AND'
p1
(dp2
I0
(dp3
cglitchresistor.emulator
Result
p4
(I1
tp5
Rp6
I1
ssI1
(dp7
g6
I31
sg4
(I4
tp8
Rp9
I1
ssI2
(dp10
g4
(I8
tp11
Rp12
I1
sg6
I465
sg9
I30
ssI3
(dp13
g12
I30
sg6
I4495
sg9
I435
ssI4
(dp14
g12
I435
sg6
I31465
sg9
I4060
ssI5
(dp15
g12
I4059
sg6
I169912
sg9
I27405
ssI6
(dp16
g12
I27379
sg6
I736307
sg9
I142506
ssI7
(dp17
g12
I142181
sg6
I2629900
sg9
I593775
ssI8
(dp18
g12
I591175
sg6
I7891325
sg9
I2035800
ssI9
(dp19
g12
I2020850
sg6
I20175025
sg9
I5852925
ssI10
(dp20
g12
I5787145
sg6
I44417945
sg9
I14307150
ssI11
(dp21
g12
I14076920
sg6
I84902545
sg9
I30045015
ssI12
(dp22
g12
I29387215
sg6
I141778325
sg9
I54627300
ssI13
(dp23
g12
I53065025
sg6
I207815350
sg9
I86493225
ssI14
(dp24
g12
I83368675
sg6
I268307075
sg9
I119759850
ssI15
(dp25
g12
I114448115
sg6
I305851930
sg9
I145422675
ssI16
(dp26
g12
I137696515
sg6
I308266355
sg9
I155117520
ssI17
(dp27
g12
I145459820
sg6
I274840225
sg9
I145422675
ssI18
(dp28
g12
I135022075
sg6
I216653675
sg9
I119759850
ssI19
(dp29
g12
I110102150
sg6
I150778225
sg9
I86493225
ssI20
(dp30
g12
I78767065
sg6
I92398475
sg9
I54627300
ssI21
(dp31
g12
I49315565
sg6
I49663900
sg9
I30045015
ssI22
(dp32
g12
I26920465
sg6
I23284625
sg9
I14307150
ssI23
(dp33
g12
I12744875
sg6
I9451000
sg9
I5852925
ssI24
(dp34
g12
I5195125
sg6
I3287375
sg9
I2035800
ssI25
(dp35
g12
I1805570
sg6
I966511
sg9
I593775
ssI26
(dp36
g12
I527995
sg6
I235691
sg9
I142506
ssI27
(dp37
g12
I127556
sg6
I46415
sg9
I27405
ssI28
(dp38
g12
I24805
sg6
I7095
sg9
I4060
ssI29
(dp39
g12
I3735
sg6
I790
sg9
I435
ssI30
(dp40
g12
I409
sg6
I57
sg9
I30
ssI31
(dp41
g12
I29
sg6
I2
sg9
I1
ssI32
(dp42
g12
I1
sssS'input'
p43
(dp44
S'bytes_to_trash'
p45
(lp46
I4
aI5
aI6
aI7
asS'code'
p47
S'# config:{"bytes_to_trash": "4,5,6,7", "arch":3}\nli $t3, -0x1234\nblez $t3, .good\n.glitch:\n\tli $t1, 0xdead\n\tb .glitch\n.good:\n\tli $t2, 0xaaaa\n'
p48
sS'initial_code'
p49
(lp50
I36
aI11
aI237
aI204
aI25
aI96
aI0
aI4
aI0
aI0
aI0
aI0
aI52
aI9
aI222
aI173
aI16
aI0
aI255
aI254
aI0
aI0
aI0
aI0
aI52
aI10
aI170
aI170
asS'initial_bytes'
p51
(lp52
I25
aI96
aI0
aI4
asS'name'
p53
S'blez.s'
p54
ss.