(dp0
S'AND'
p1
(dp2
I0
(dp3
cglitchresistor.emulator
Result
p4
(I1
tp5
Rp6
I1
ssI1
(dp7
g6
I32
ssI2
(dp8
g6
I496
ssI3
(dp9
g6
I4960
ssI4
(dp10
g6
I35960
ssI5
(dp11
g4
(I8
tp12
Rp13
I1
sg6
I201375
ssI6
(dp14
g13
I27
sg6
I906165
ssI7
(dp15
g13
I351
sg6
I3365505
ssI8
(dp16
g13
I2925
sg6
I10515375
ssI9
(dp17
g13
I17550
sg6
I28031250
ssI10
(dp18
g13
I80730
sg6
I64431510
ssI11
(dp19
g13
I296010
sg6
I128728470
ssI12
(dp20
g13
I888030
sg6
I224904810
ssI13
(dp21
g13
I2220075
sg6
I345153525
ssI14
(dp22
g13
I4686825
sg6
I466748775
ssI15
(dp23
g13
I8436285
sg6
I557286435
ssI16
(dp24
g13
I13037895
sg6
I588042495
ssI17
(dp25
g13
I17383860
sg6
I548338860
ssI18
(dp26
g13
I20058300
sg6
I451377300
ssI19
(dp27
g13
I20058300
sg6
I327315300
ssI20
(dp28
g13
I17383860
sg6
I208408980
ssI21
(dp29
g13
I13037895
sg6
I115986585
ssI22
(dp30
g13
I8436285
sg6
I56075955
ssI23
(dp31
g13
I4686825
sg6
I23361975
ssI24
(dp32
g13
I2220075
sg6
I8298225
ssI25
(dp33
g13
I888030
sg6
I2477826
ssI26
(dp34
g13
I296010
sg6
I610182
ssI27
(dp35
g13
I80730
sg6
I120646
ssI28
(dp36
g13
I17550
sg6
I18410
ssI29
(dp37
g13
I2925
sg6
I2035
ssI30
(dp38
g13
I351
sg6
I145
ssI31
(dp39
g13
I27
sg6
I5
ssI32
(dp40
g13
I1
sssS'input'
p41
(dp42
S'bytes_to_trash'
p43
(lp44
I4
aI5
aI6
aI7
asS'code'
p45
S'# config:{"bytes_to_trash": "4,5,6,7", "arch":3}\nli $t3, -0x1234\nbltzal $t3, .good\n.glitch:\n\tli $t1, 0xdead\n\tb .glitch\n.good:\n\tli $t2, 0xaaaa\n'
p46
sS'initial_code'
p47
(lp48
I36
aI11
aI237
aI204
aI5
aI112
aI0
aI4
aI0
aI0
aI0
aI0
aI52
aI9
aI222
aI173
aI16
aI0
aI255
aI254
aI0
aI0
aI0
aI0
aI52
aI10
aI170
aI170
asS'initial_bytes'
p49
(lp50
I5
aI112
aI0
aI4
asS'name'
p51
S'bltzal.s'
p52
ss.