(dp0
S'AND'
p1
(dp2
I0
(dp3
cglitchresistor.emulator
Result
p4
(I1
tp5
Rp6
I1
ssI1
(dp7
g6
I32
ssI2
(dp8
g4
(I8
tp9
Rp10
I1
sg6
I493
sg4
(I4
tp11
Rp12
I2
ssI3
(dp13
g10
I29
sg6
I4875
sg12
I56
ssI4
(dp14
g10
I403
sg6
I34801
sg12
I756
ssI5
(dp15
g10
I3630
sg6
I191194
sg12
I6552
ssI6
(dp16
g10
I23681
sg6
I841561
sg12
I40950
ssI7
(dp17
g10
I117783
sg6
I3051513
sg12
I196560
ssI8
(dp18
g10
I468878
sg6
I9295942
sg12
I753480
ssI9
(dp19
g10
I1527755
sg6
I24152965
sg12
I2368080
ssI10
(dp20
g10
I4162552
sg6
I54133478
sg12
I6216210
ssI11
(dp21
g10
I9612616
sg6
I105598064
sg12
I13813800
ssI12
(dp22
g10
I19036554
sg6
I180510066
sg12
I26246220
ssI13
(dp23
g10
I32626499
sg6
I271798741
sg12
I42948360
ssI14
(dp24
g10
I48753966
sg6
I361838124
sg12
I60843510
ssI15
(dp25
g10
I63959276
sg6
I426879124
sg12
I74884320
ssI16
(dp26
g10
I74074581
sg6
I446772609
sg12
I80233200
ssI17
(dp27
g10
I76101749
sg6
I414736651
sg12
I74884320
ssI18
(dp28
g10
I69617509
sg6
I340974581
sg12
I60843510
ssI19
(dp29
g10
I56828901
sg6
I247596339
sg12
I42948360
ssI20
(dp30
g10
I41402875
sg6
I158143745
sg12
I26246220
ssI21
(dp31
g10
I26857471
sg6
I88353209
sg12
I13813800
ssI22
(dp32
g10
I15432226
sg6
I42863804
sg12
I6216210
ssI23
(dp33
g10
I7791742
sg6
I17888978
sg12
I2368080
ssI24
(dp34
g10
I3418555
sg6
I6346265
sg12
I753480
ssI25
(dp35
g10
I1285137
sg6
I1884159
sg12
I196560
ssI26
(dp36
g10
I406678
sg6
I458564
sg12
I40950
ssI27
(dp37
g10
I105907
sg6
I88917
sg12
I6552
ssI28
(dp38
g10
I22028
sg6
I13176
sg12
I756
ssI29
(dp39
g10
I3507
sg6
I1397
sg12
I56
ssI30
(dp40
g10
I400
sg6
I94
sg12
I2
ssI31
(dp41
g10
I29
sg6
I3
ssI32
(dp42
g10
I1
sssS'input'
p43
(dp44
S'bytes_to_trash'
p45
(lp46
I8
aI9
aI10
aI11
asS'code'
p47
S'# config:{"bytes_to_trash": "8,9,10,11", "arch":3}\nli $t3, 0x1234\nli $t4, 0x5678\nbne $t3, $t4, .good\n.glitch:\n\tli $t1, 0xdead\n\tb .glitch\n.good:\n\tli $t2, 0xaaaa\n'
p48
sS'initial_code'
p49
(lp50
I36
aI11
aI18
aI52
aI36
aI12
aI86
aI120
aI21
aI108
aI0
aI4
aI0
aI0
aI0
aI0
aI52
aI9
aI222
aI173
aI16
aI0
aI255
aI254
aI0
aI0
aI0
aI0
aI52
aI10
aI170
aI170
asS'initial_bytes'
p51
(lp52
I21
aI108
aI0
aI4
asS'name'
p53
S'bne.s'
p54
ss.