(dp0
S'input'
p1
(dp2
S'bytes_to_trash'
p3
(lp4
I2
aI3
asS'code'
p5
S'# config:{"bytes_to_trash": "2,3"}\ncmp r0, r1\nbcc .good\nmov r0, 0xdead\n.good:\nmov r1, 0xaaaa'
p6
sS'initial_code'
p7
(lp8
I136
aI66
aI1
aI211
aI77
aI246
aI173
aI96
aI74
aI246
aI170
aI33
asS'initial_bytes'
p9
(lp10
I1
aI211
asS'name'
p11
S'bcc.S'
p12
ssS'OR'
p13
(dp14
I0
(dp15
cglitchresistor.emulator
Result
p16
(I8
tp17
Rp18
I1
ssI1
(dp19
g18
I8
sg16
(I4
tp20
Rp21
I2
sg16
(I7
tp22
Rp23
I6
ssI2
(dp24
g18
I28
sg16
(I1
tp25
Rp26
I1
sg21
I28
sg23
I63
ssI3
(dp27
g18
I62
sg26
I13
sg16
(I3
tp28
Rp29
I1
sg21
I182
sg23
I302
ssI4
(dp30
g18
I122
sg26
I78
sg29
I13
sg21
I727
sg23
I880
ssI5
(dp31
g18
I266
sg26
I286
sg29
I78
sg21
I1992
sg23
I1746
ssI6
(dp32
g18
I553
sg26
I715
sg29
I286
sg21
I3958
sg23
I2496
ssI7
(dp33
g18
I914
sg26
I1288
sg29
I715
sg21
I5877
sg23
I2646
ssI8
(dp34
g18
I1134
sg26
I1724
sg29
I1287
sg21
I6619
sg23
I2106
ssI9
(dp35
g18
I1044
sg26
I1743
sg29
I1716
sg21
I5677
sg23
I1260
ssI10
(dp36
g18
I705
sg26
I1337
sg29
I1716
sg21
I3689
sg23
I561
ssI11
(dp37
g18
I340
sg26
I770
sg29
I1287
sg21
I1791
sg23
I180
ssI12
(dp38
g18
I111
sg26
I322
sg29
I715
sg21
I634
sg23
I38
ssI13
(dp39
g18
I22
sg26
I91
sg29
I286
sg21
I157
sg23
I4
ssI14
(dp40
g18
I2
sg26
I15
sg29
I78
sg21
I25
ssI15
(dp41
g26
I1
sg29
I13
sg21
I2
ssI16
(dp42
g29
I1
sss.