(dp0
S'AND'
p1
(dp2
I0
(dp3
cglitchresistor.emulator
Result
p4
(I1
tp5
Rp6
I1
ssI1
(dp7
g6
I16
ssI2
(dp8
g6
I119
sg4
(I7
tp9
Rp10
I1
ssI3
(dp11
g6
I547
sg10
I13
ssI4
(dp12
g4
(I8
tp13
Rp14
I1
sg6
I1739
sg10
I80
ssI5
(dp15
g14
I12
sg6
I4049
sg10
I307
ssI6
(dp16
g14
I66
sg6
I7127
sg10
I815
ssI7
(dp17
g14
I220
sg6
I9648
sg10
I1572
ssI8
(dp18
g14
I495
sg6
I10119
sg10
I2256
ssI9
(dp19
g14
I792
sg6
I8218
sg10
I2430
ssI10
(dp20
g14
I924
sg6
I5125
sg10
I1959
ssI11
(dp21
g14
I792
sg6
I2411
sg10
I1165
ssI12
(dp22
g14
I495
sg6
I829
sg10
I496
ssI13
(dp23
g14
I220
sg6
I197
sg10
I143
ssI14
(dp24
g14
I66
sg6
I29
sg10
I25
ssI15
(dp25
g14
I12
sg6
I2
sg10
I2
ssI16
(dp26
g14
I1
sssS'input'
p27
(dp28
S'bytes_to_trash'
p29
(lp30
I2
aI3
asS'code'
p31
S'# config:{"bytes_to_trash": "2,3"}\ncmp r0, r1\nbcc .good\nmov r0, 0xdead\n.good:\nmov r1, 0xaaaa'
p32
sS'initial_code'
p33
(lp34
I136
aI66
aI1
aI211
aI77
aI246
aI173
aI96
aI74
aI246
aI170
aI33
asS'initial_bytes'
p35
(lp36
I1
aI211
asS'name'
p37
S'bcc.S'
p38
ssS'XOR'
p39
(dp40
I0
(dp41
g14
I1
ssI1
(dp42
g14
I4
sg6
I2
sg4
(I4
tp43
Rp44
I2
sg10
I8
ssI2
(dp45
g14
I5
sg6
I25
sg4
(I2
tp46
Rp47
I3
sg44
I21
sg10
I66
ssI3
(dp48
g6
I150
sg47
I36
sg4
(I3
tp49
Rp50
I5
sg44
I100
sg10
I258
sg14
I11
ssI4
(dp51
g6
I573
sg47
I183
sg50
I46
sg44
I292
sg10
I692
sg14
I34
ssI5
(dp52
g6
I1581
sg47
I564
sg50
I184
sg44
I587
sg10
I1370
sg14
I82
ssI6
(dp53
g6
I3283
sg47
I1185
sg50
I450
sg44
I863
sg10
I2077
sg14
I150
ssI7
(dp54
g6
I5315
sg47
I1806
sg50
I740
sg44
I961
sg10
I2417
sg14
I201
ssI8
(dp55
g6
I6784
sg47
I2087
sg50
I882
sg44
I796
sg4
(I6
tp56
Rp57
I2
sg10
I2130
sg14
I189
ssI9
(dp58
g6
I6778
sg47
I1823
sg50
I769
sg44
I510
sg57
I5
sg10
I1442
sg14
I113
ssI10
(dp59
g6
I5244
sg47
I1266
sg50
I498
sg44
I224
sg57
I9
sg10
I732
sg14
I35
ssI11
(dp60
g6
I3138
sg47
I640
sg50
I230
sg44
I68
sg57
I5
sg10
I280
sg14
I7
ssI12
(dp61
g6
I1397
sg47
I260
sg50
I70
sg44
I15
sg57
I1
sg10
I77
ssI13
(dp62
g6
I464
sg47
I70
sg50
I12
sg44
I2
sg10
I12
ssI14
(dp63
g6
I104
sg47
I12
sg50
I1
sg44
I1
sg10
I2
ssI15
(dp64
g6
I15
sg47
I1
ssI16
(dp65
g6
I1
sssS'OR'
p66
(dp67
I0
(dp68
g14
I1
ssI1
(dp69
g14
I8
sg44
I2
sg10
I6
ssI2
(dp70
g14
I28
sg6
I1
sg44
I28
sg10
I63
ssI3
(dp71
g14
I62
sg6
I13
sg50
I1
sg44
I182
sg10
I302
ssI4
(dp72
g14
I122
sg6
I78
sg50
I13
sg44
I727
sg10
I880
ssI5
(dp73
g14
I266
sg6
I286
sg50
I78
sg44
I1992
sg10
I1746
ssI6
(dp74
g14
I553
sg6
I715
sg50
I286
sg44
I3958
sg10
I2496
ssI7
(dp75
g14
I914
sg6
I1288
sg50
I715
sg44
I5877
sg10
I2646
ssI8
(dp76
g14
I1134
sg6
I1724
sg50
I1287
sg44
I6619
sg10
I2106
ssI9
(dp77
g14
I1044
sg6
I1743
sg50
I1716
sg44
I5677
sg10
I1260
ssI10
(dp78
g14
I705
sg6
I1337
sg50
I1716
sg44
I3689
sg10
I561
ssI11
(dp79
g14
I340
sg6
I770
sg50
I1287
sg44
I1791
sg10
I180
ssI12
(dp80
g14
I111
sg6
I322
sg50
I715
sg44
I634
sg10
I38
ssI13
(dp81
g14
I22
sg6
I91
sg50
I286
sg44
I157
sg10
I4
ssI14
(dp82
g14
I2
sg6
I15
sg50
I78
sg44
I25
ssI15
(dp83
g6
I1
sg50
I13
sg44
I2
ssI16
(dp84
g50
I1
sss.