(dp0
S'AND'
p1
(dp2
I0
(dp3
cglitchresistor.emulator
Result
p4
(I1
tp5
Rp6
I1
ssI1
(dp7
g6
I16
ssI2
(dp8
g6
I119
sg4
(I7
tp9
Rp10
I1
ssI3
(dp11
g6
I547
sg10
I13
ssI4
(dp12
g4
(I8
tp13
Rp14
I1
sg6
I1740
sg10
I79
ssI5
(dp15
g14
I12
sg6
I4059
sg10
I297
ssI6
(dp16
g14
I66
sg6
I7172
sg10
I770
ssI7
(dp17
g14
I220
sg6
I9768
sg10
I1452
ssI8
(dp18
g14
I495
sg6
I10329
sg10
I2046
ssI9
(dp19
g14
I792
sg6
I8470
sg10
I2178
ssI10
(dp20
g14
I924
sg6
I5335
sg10
I1749
ssI11
(dp21
g14
I792
sg6
I2531
sg10
I1045
ssI12
(dp22
g14
I495
sg6
I874
sg10
I451
ssI13
(dp23
g14
I220
sg6
I207
sg10
I133
ssI14
(dp24
g14
I66
sg6
I30
sg10
I24
ssI15
(dp25
g14
I12
sg6
I2
sg10
I2
ssI16
(dp26
g14
I1
sssS'input'
p27
(dp28
S'bytes_to_trash'
p29
(lp30
I2
aI3
asS'code'
p31
S'# config:{"bytes_to_trash": "2,3"}\ncmp r7, r5\nbcs .good\nmov r0, 0xdead\n.good:\nmov r1, 0xaaaa'
p32
sS'initial_code'
p33
(lp34
I175
aI66
aI1
aI210
aI77
aI246
aI173
aI96
aI74
aI246
aI170
aI33
asS'initial_bytes'
p35
(lp36
I1
aI210
asS'name'
p37
S'bcs.S'
p38
ssS'XOR'
p39
(dp40
I0
(dp41
g14
I1
ssI1
(dp42
g14
I2
sg6
I4
sg4
(I4
tp43
Rp44
I2
sg10
I8
ssI2
(dp45
g6
I42
sg4
(I2
tp46
Rp47
I3
sg4
(I3
tp48
Rp49
I2
sg44
I19
sg10
I50
sg14
I4
ssI3
(dp50
g6
I206
sg47
I30
sg49
I18
sg44
I87
sg10
I210
sg14
I9
ssI4
(dp51
g6
I679
sg47
I164
sg49
I80
sg44
I255
sg10
I616
sg14
I26
ssI5
(dp52
g6
I1686
sg47
I527
sg49
I230
sg44
I532
sg10
I1315
sg14
I78
ssI6
(dp53
g6
I3323
sg47
I1151
sg49
I482
sg44
I823
sg10
I2070
sg14
I159
ssI7
(dp54
g6
I5263
sg47
I1808
sg49
I753
sg44
I968
sg10
I2443
sg14
I205
ssI8
(dp55
g6
I6662
sg47
I2106
sg49
I856
sg44
I852
sg10
I2209
sg14
I185
ssI9
(dp56
g6
I6650
sg47
I1898
sg49
I732
sg44
I550
sg4
(I6
tp57
Rp58
I2
sg10
I1497
sg14
I111
ssI10
(dp59
g6
I5212
sg47
I1251
sg49
I457
sg44
I268
sg58
I5
sg10
I765
sg14
I50
ssI11
(dp60
g6
I3103
sg47
I676
sg49
I207
sg44
I76
sg58
I9
sg10
I289
sg14
I8
ssI12
(dp61
g6
I1401
sg47
I259
sg49
I64
sg44
I13
sg58
I5
sg10
I78
ssI13
(dp62
g6
I463
sg47
I70
sg49
I11
sg44
I2
sg58
I1
sg10
I13
ssI14
(dp63
g6
I104
sg47
I12
sg49
I1
sg44
I2
sg10
I1
ssI15
(dp64
g6
I15
sg47
I1
ssI16
(dp65
g6
I1
sssS'OR'
p66
(dp67
I0
(dp68
g14
I1
ssI1
(dp69
g14
I6
sg6
I2
sg44
I2
sg10
I6
ssI2
(dp70
g14
I16
sg6
I25
sg49
I2
sg44
I26
sg10
I51
ssI3
(dp71
g14
I27
sg6
I145
sg49
I24
sg44
I158
sg10
I206
ssI4
(dp72
g14
I47
sg6
I518
sg49
I134
sg44
I596
sg10
I525
ssI5
(dp73
g14
I126
sg6
I1276
sg49
I464
sg44
I1561
sg10
I941
ssI6
(dp74
g14
I336
sg6
I2299
sg49
I1120
sg44
I3004
sg10
I1249
ssI7
(dp75
g14
I661
sg6
I3136
sg49
I2005
sg44
I4379
sg10
I1259
ssI8
(dp76
g14
I924
sg6
I3306
sg49
I2757
sg44
I4910
sg10
I973
ssI9
(dp77
g14
I924
sg6
I2722
sg49
I2964
sg44
I4255
sg10
I575
ssI10
(dp78
g14
I660
sg6
I1752
sg49
I2502
sg44
I2838
sg10
I256
ssI11
(dp79
g14
I330
sg6
I872
sg49
I1646
sg44
I1437
sg10
I83
ssI12
(dp80
g14
I110
sg6
I326
sg49
I828
sg44
I538
sg10
I18
ssI13
(dp81
g14
I22
sg6
I86
sg49
I308
sg44
I142
sg10
I2
ssI14
(dp82
g14
I2
sg6
I14
sg49
I80
sg44
I24
ssI15
(dp83
g6
I1
sg49
I13
sg44
I2
ssI16
(dp84
g49
I1
sss.