(dp0
S'AND'
p1
(dp2
I0
(dp3
cglitchresistor.emulator
Result
p4
(I1
tp5
Rp6
I1
ssI1
(dp7
g6
I16
ssI2
(dp8
g6
I119
sg4
(I7
tp9
Rp10
I1
ssI3
(dp11
g6
I547
sg10
I13
ssI4
(dp12
g4
(I8
tp13
Rp14
I1
sg6
I1740
sg10
I79
ssI5
(dp15
g14
I12
sg6
I4059
sg10
I297
ssI6
(dp16
g14
I66
sg6
I7172
sg10
I770
ssI7
(dp17
g14
I220
sg6
I9768
sg10
I1452
ssI8
(dp18
g14
I495
sg6
I10329
sg10
I2046
ssI9
(dp19
g14
I792
sg6
I8470
sg10
I2178
ssI10
(dp20
g14
I924
sg6
I5335
sg10
I1749
ssI11
(dp21
g14
I792
sg6
I2531
sg10
I1045
ssI12
(dp22
g14
I495
sg6
I874
sg10
I451
ssI13
(dp23
g14
I220
sg6
I207
sg10
I133
ssI14
(dp24
g14
I66
sg6
I30
sg10
I24
ssI15
(dp25
g14
I12
sg6
I2
sg10
I2
ssI16
(dp26
g14
I1
sssS'input'
p27
(dp28
S'bytes_to_trash'
p29
(lp30
I2
aI3
asS'code'
p31
S'# config:{"bytes_to_trash": "2,3"}\ncmp r7, r5\nbcs .good\nmov r0, 0xdead\n.good:\nmov r1, 0xaaaa'
p32
sS'initial_code'
p33
(lp34
I175
aI66
aI1
aI210
aI77
aI246
aI173
aI96
aI74
aI246
aI170
aI33
asS'initial_bytes'
p35
(lp36
I1
aI210
asS'name'
p37
S'bcs.S'
p38
ss.