(dp0
S'AND'
p1
(dp2
I0
(dp3
cglitchresistor.emulator
Result
p4
(I1
tp5
Rp6
I1
ssI1
(dp7
g6
I16
ssI2
(dp8
g6
I119
sg4
(I7
tp9
Rp10
I1
ssI3
(dp11
g4
(I8
tp12
Rp13
I1
sg6
I546
sg10
I13
ssI4
(dp14
g13
I13
sg6
I1729
sg10
I78
ssI5
(dp15
g13
I78
sg6
I4004
sg10
I286
ssI6
(dp16
g13
I286
sg6
I7007
sg10
I715
ssI7
(dp17
g13
I715
sg6
I9438
sg10
I1287
ssI8
(dp18
g13
I1287
sg6
I9867
sg10
I1716
ssI9
(dp19
g13
I1716
sg6
I8008
sg10
I1716
ssI10
(dp20
g13
I1716
sg6
I5005
sg10
I1287
ssI11
(dp21
g13
I1287
sg6
I2366
sg10
I715
ssI12
(dp22
g13
I715
sg6
I819
sg10
I286
ssI13
(dp23
g13
I286
sg6
I196
sg10
I78
ssI14
(dp24
g13
I78
sg6
I29
sg10
I13
ssI15
(dp25
g13
I13
sg6
I2
sg10
I1
ssI16
(dp26
g13
I1
sssS'input'
p27
(dp28
S'bytes_to_trash'
p29
(lp30
I2
aI3
asS'code'
p31
S'# config:{"bytes_to_trash": "2,3"}\ncmp r0, r5\nbeq .good\nmov r0, 0xdead\n.good:\nmov r1, 0xaaaa'
p32
sS'initial_code'
p33
(lp34
I168
aI66
aI1
aI208
aI77
aI246
aI173
aI96
aI74
aI246
aI170
aI33
asS'initial_bytes'
p35
(lp36
I1
aI208
asS'name'
p37
S'beq.s'
p38
ssS'OR'
p39
(dp40
I0
(dp41
g13
I1
ssI1
(dp42
g13
I5
sg6
I3
sg4
(I4
tp43
Rp44
I2
sg10
I6
ssI2
(dp45
g13
I13
sg6
I36
sg4
(I3
tp46
Rp47
I1
sg44
I25
sg10
I45
ssI3
(dp48
g13
I24
sg6
I199
sg47
I15
sg44
I149
sg10
I173
ssI4
(dp49
g13
I34
sg6
I672
sg47
I99
sg44
I561
sg10
I454
ssI5
(dp50
g6
I1551
sg4
(I2
tp51
Rp52
I1
sg47
I388
sg44
I1487
sg10
I887
sg13
I54
ssI6
(dp53
g6
I2596
sg52
I6
sg47
I1023
sg44
I2923
sg10
I1322
sg13
I138
ssI7
(dp54
g6
I3268
sg52
I18
sg47
I1943
sg44
I4370
sg10
I1509
sg13
I332
ssI8
(dp55
g6
I3173
sg52
I32
sg47
I2773
sg44
I5019
sg10
I1312
sg13
I561
ssI9
(dp56
g6
I2422
sg52
I33
sg47
I3049
sg44
I4427
sg10
I859
sg13
I650
ssI10
(dp57
g6
I1476
sg52
I18
sg47
I2607
sg44
I2971
sg10
I417
sg13
I519
ssI11
(dp58
g6
I724
sg52
I4
sg47
I1723
sg44
I1489
sg10
I146
sg13
I282
ssI12
(dp59
g13
I100
sg6
I281
sg47
I863
sg44
I542
sg10
I34
ssI13
(dp60
g13
I21
sg6
I80
sg47
I317
sg44
I138
sg10
I4
ssI14
(dp61
g13
I2
sg6
I14
sg47
I81
sg44
I23
ssI15
(dp62
g6
I1
sg47
I13
sg44
I2
ssI16
(dp63
g47
I1
sss.