(dp0
S'AND'
p1
(dp2
I0
(dp3
cglitchresistor.emulator
Result
p4
(I1
tp5
Rp6
I1
ssI1
(dp7
g6
I16
ssI2
(dp8
g6
I119
sg4
(I7
tp9
Rp10
I1
ssI3
(dp11
g4
(I8
tp12
Rp13
I1
sg6
I546
sg10
I13
ssI4
(dp14
g13
I13
sg6
I1729
sg10
I78
ssI5
(dp15
g13
I78
sg6
I4004
sg10
I286
ssI6
(dp16
g13
I286
sg6
I7007
sg10
I715
ssI7
(dp17
g13
I715
sg6
I9438
sg10
I1287
ssI8
(dp18
g13
I1287
sg6
I9867
sg10
I1716
ssI9
(dp19
g13
I1716
sg6
I8008
sg10
I1716
ssI10
(dp20
g13
I1716
sg6
I5005
sg10
I1287
ssI11
(dp21
g13
I1287
sg6
I2366
sg10
I715
ssI12
(dp22
g13
I715
sg6
I819
sg10
I286
ssI13
(dp23
g13
I286
sg6
I196
sg10
I78
ssI14
(dp24
g13
I78
sg6
I29
sg10
I13
ssI15
(dp25
g13
I13
sg6
I2
sg10
I1
ssI16
(dp26
g13
I1
sssS'input'
p27
(dp28
S'bytes_to_trash'
p29
(lp30
I2
aI3
asS'code'
p31
S'# config:{"bytes_to_trash": "2,3"}\ncmp r0, r5\nbeq .good\nmov r0, 0xdead\n.good:\nmov r1, 0xaaaa'
p32
sS'initial_code'
p33
(lp34
I168
aI66
aI1
aI208
aI77
aI246
aI173
aI96
aI74
aI246
aI170
aI33
asS'initial_bytes'
p35
(lp36
I1
aI208
asS'name'
p37
S'beq.S'
p38
ss.