(dp0
S'AND'
p1
(dp2
I0
(dp3
cglitchresistor.emulator
Result
p4
(I1
tp5
Rp6
I1
ssI1
(dp7
g6
I16
ssI2
(dp8
g6
I119
sg4
(I7
tp9
Rp10
I1
ssI3
(dp11
g4
(I8
tp12
Rp13
I1
sg6
I546
sg4
(I2
tp14
Rp15
I1
sg10
I12
ssI4
(dp16
g13
I12
sg6
I1729
sg15
I12
sg10
I67
ssI5
(dp17
g13
I67
sg6
I4004
sg15
I67
sg10
I230
ssI6
(dp18
g13
I231
sg6
I7007
sg15
I230
sg10
I540
ssI7
(dp19
g13
I550
sg6
I9438
sg15
I540
sg10
I912
ssI8
(dp20
g13
I957
sg6
I9867
sg15
I912
sg10
I1134
ssI9
(dp21
g13
I1254
sg6
I8008
sg15
I1134
sg10
I1044
ssI10
(dp22
g13
I1254
sg6
I5005
sg15
I1044
sg10
I705
ssI11
(dp23
g13
I957
sg6
I2366
sg15
I705
sg10
I340
ssI12
(dp24
g13
I550
sg6
I819
sg15
I340
sg10
I111
ssI13
(dp25
g13
I231
sg6
I196
sg15
I111
sg10
I22
ssI14
(dp26
g13
I67
sg6
I29
sg15
I22
sg10
I2
ssI15
(dp27
g13
I12
sg6
I2
sg15
I2
ssI16
(dp28
g13
I1
sssS'input'
p29
(dp30
S'bytes_to_trash'
p31
(lp32
I2
aI3
asS'code'
p33
S'# config:{"bytes_to_trash": "2,3"}\ncmp r0, r5\nbge .good\nmov r0, 0xdead\n.good:\nmov r1, 0xaaaa'
p34
sS'initial_code'
p35
(lp36
I168
aI66
aI1
aI218
aI77
aI246
aI173
aI96
aI74
aI246
aI170
aI33
asS'initial_bytes'
p37
(lp38
I1
aI218
asS'name'
p39
S'bge.S'
p40
ssS'XOR'
p41
(dp42
I0
(dp43
g13
I1
ssI1
(dp44
g6
I3
sg15
I2
sg4
(I3
tp45
Rp46
I2
sg4
(I4
tp47
Rp48
I1
sg10
I6
sg13
I2
ssI2
(dp49
g6
I36
sg15
I23
sg46
I17
sg48
I9
sg10
I29
sg13
I6
ssI3
(dp50
g6
I191
sg15
I135
sg46
I71
sg48
I42
sg10
I94
sg13
I27
ssI4
(dp51
g6
I659
sg15
I463
sg46
I200
sg48
I134
sg10
I282
sg13
I82
ssI5
(dp52
g6
I1670
sg15
I1074
sg46
I419
sg48
I322
sg10
I723
sg13
I160
ssI6
(dp53
g6
I3319
sg15
I1763
sg46
I668
sg48
I597
sg10
I1455
sg13
I206
ssI7
(dp54
g6
I5266
sg15
I2126
sg46
I811
sg48
I858
sg10
I2192
sg13
I187
ssI8
(dp55
g6
I6632
sg15
I1973
sg46
I754
sg48
I935
sg4
(I6
tp56
Rp57
I2
sg10
I2466
sg13
I108
ssI9
(dp58
g6
I6662
sg15
I1323
sg46
I532
sg48
I796
sg57
I5
sg10
I2077
sg13
I45
ssI10
(dp59
g6
I5214
sg15
I716
sg46
I276
sg48
I473
sg57
I9
sg10
I1310
sg13
I10
ssI11
(dp60
g6
I3155
sg15
I268
sg46
I103
sg48
I209
sg57
I5
sg10
I625
sg13
I3
ssI12
(dp61
g6
I1425
sg15
I76
sg46
I26
sg48
I63
sg57
I1
sg10
I229
ssI13
(dp62
g6
I468
sg15
I12
sg46
I6
sg48
I10
sg10
I62
sg13
I2
ssI14
(dp63
g6
I105
sg15
I2
sg48
I1
sg10
I12
ssI15
(dp64
g6
I14
sg46
I1
sg10
I1
ssI16
(dp65
g6
I1
sssS'OR'
p66
(dp67
I0
(dp68
g13
I1
ssI1
(dp69
g13
I6
sg6
I1
sg46
I2
sg48
I1
sg10
I6
ssI2
(dp70
g13
I17
sg6
I14
sg46
I26
sg48
I12
sg10
I51
ssI3
(dp71
g13
I44
sg6
I91
sg46
I158
sg48
I67
sg10
I200
ssI4
(dp72
g13
I147
sg6
I364
sg46
I598
sg48
I231
sg10
I480
ssI5
(dp73
g13
I446
sg6
I1001
sg46
I1584
sg48
I551
sg10
I786
ssI6
(dp74
g13
I991
sg6
I2002
sg46
I3125
sg48
I966
sg10
I924
ssI7
(dp75
g13
I1584
sg6
I3004
sg46
I4762
sg48
I1292
sg10
I798
ssI8
(dp76
g13
I1848
sg6
I3438
sg46
I5721
sg48
I1353
sg10
I510
ssI9
(dp77
g13
I1584
sg6
I3018
sg46
I5466
sg48
I1132
sg10
I240
ssI10
(dp78
g13
I990
sg6
I2022
sg46
I4148
sg48
I767
sg10
I81
ssI11
(dp79
g13
I440
sg6
I1016
sg46
I2474
sg48
I420
sg10
I18
ssI12
(dp80
g13
I132
sg6
I370
sg46
I1136
sg48
I180
sg10
I2
ssI13
(dp81
g13
I24
sg6
I92
sg46
I388
sg48
I56
ssI14
(dp82
g13
I2
sg6
I14
sg46
I93
sg48
I11
ssI15
(dp83
g6
I1
sg46
I14
sg48
I1
ssI16
(dp84
g46
I1
sss.