(dp0
S'AND'
p1
(dp2
I0
(dp3
cglitchresistor.emulator
Result
p4
(I1
tp5
Rp6
I1
ssI1
(dp7
g6
I16
ssI2
(dp8
g6
I119
sg4
(I7
tp9
Rp10
I1
ssI3
(dp11
g4
(I8
tp12
Rp13
I1
sg6
I546
sg4
(I2
tp14
Rp15
I1
sg10
I12
ssI4
(dp16
g13
I12
sg6
I1729
sg15
I12
sg10
I67
ssI5
(dp17
g13
I67
sg6
I4004
sg15
I67
sg10
I230
ssI6
(dp18
g13
I231
sg6
I7007
sg15
I230
sg10
I540
ssI7
(dp19
g13
I550
sg6
I9438
sg15
I540
sg10
I912
ssI8
(dp20
g13
I957
sg6
I9867
sg15
I912
sg10
I1134
ssI9
(dp21
g13
I1254
sg6
I8008
sg15
I1134
sg10
I1044
ssI10
(dp22
g13
I1254
sg6
I5005
sg15
I1044
sg10
I705
ssI11
(dp23
g13
I957
sg6
I2366
sg15
I705
sg10
I340
ssI12
(dp24
g13
I550
sg6
I819
sg15
I340
sg10
I111
ssI13
(dp25
g13
I231
sg6
I196
sg15
I111
sg10
I22
ssI14
(dp26
g13
I67
sg6
I29
sg15
I22
sg10
I2
ssI15
(dp27
g13
I12
sg6
I2
sg15
I2
ssI16
(dp28
g13
I1
sssS'input'
p29
(dp30
S'bytes_to_trash'
p31
(lp32
I2
aI3
asS'code'
p33
S'# config:{"bytes_to_trash": "2,3"}\ncmp r0, r5\nbge .good\nmov r0, 0xdead\n.good:\nmov r1, 0xaaaa'
p34
sS'initial_code'
p35
(lp36
I168
aI66
aI1
aI218
aI77
aI246
aI173
aI96
aI74
aI246
aI170
aI33
asS'initial_bytes'
p37
(lp38
I1
aI218
asS'name'
p39
S'bge.S'
p40
ss.