(dp0
S'AND'
p1
(dp2
I0
(dp3
cglitchresistor.emulator
Result
p4
(I1
tp5
Rp6
I1
ssI1
(dp7
g6
I16
ssI2
(dp8
g6
I119
sg4
(I7
tp9
Rp10
I1
ssI3
(dp11
g6
I547
sg4
(I2
tp12
Rp13
I1
sg10
I12
ssI4
(dp14
g4
(I8
tp15
Rp16
I1
sg6
I1740
sg13
I12
sg10
I67
ssI5
(dp17
g16
I12
sg6
I4059
sg13
I67
sg10
I230
ssI6
(dp18
g16
I66
sg6
I7172
sg13
I230
sg10
I540
ssI7
(dp19
g16
I220
sg6
I9768
sg13
I540
sg10
I912
ssI8
(dp20
g16
I495
sg6
I10329
sg13
I912
sg10
I1134
ssI9
(dp21
g16
I792
sg6
I8470
sg13
I1134
sg10
I1044
ssI10
(dp22
g16
I924
sg6
I5335
sg13
I1044
sg10
I705
ssI11
(dp23
g16
I792
sg6
I2531
sg13
I705
sg10
I340
ssI12
(dp24
g16
I495
sg6
I874
sg13
I340
sg10
I111
ssI13
(dp25
g16
I220
sg6
I207
sg13
I111
sg10
I22
ssI14
(dp26
g16
I66
sg6
I30
sg13
I22
sg10
I2
ssI15
(dp27
g16
I12
sg6
I2
sg13
I2
ssI16
(dp28
g16
I1
sssS'input'
p29
(dp30
S'bytes_to_trash'
p31
(lp32
I2
aI3
asS'code'
p33
S'# config:{"bytes_to_trash": "2,3"}\ncmp r1, r0\nbgt .good\nmov r0, 0xdead\n.good:\nmov r1, 0xaaaa'
p34
sS'initial_code'
p35
(lp36
I129
aI66
aI1
aI220
aI77
aI246
aI173
aI96
aI74
aI246
aI170
aI33
asS'initial_bytes'
p37
(lp38
I1
aI220
asS'name'
p39
S'bgt.S'
p40
ssS'XOR'
p41
(dp42
I0
(dp43
g16
I1
ssI1
(dp44
g6
I3
sg13
I2
sg4
(I3
tp45
Rp46
I2
sg4
(I4
tp47
Rp48
I1
sg10
I6
sg16
I2
ssI2
(dp49
g6
I37
sg13
I22
sg46
I20
sg48
I9
sg10
I29
sg16
I3
ssI3
(dp50
g6
I199
sg13
I128
sg46
I94
sg48
I43
sg10
I91
sg16
I5
ssI4
(dp51
g6
I692
sg13
I433
sg46
I272
sg48
I146
sg10
I267
sg16
I10
ssI5
(dp52
g6
I1737
sg13
I1026
sg46
I535
sg48
I374
sg10
I652
sg16
I44
ssI6
(dp53
g6
I3359
sg13
I1792
sg46
I760
sg48
I682
sg10
I1295
sg16
I120
ssI7
(dp54
g6
I5264
sg13
I2191
sg46
I804
sg48
I964
sg10
I2016
sg16
I201
ssI8
(dp55
g6
I6598
sg13
I2026
sg46
I664
sg48
I969
sg4
(I6
tp56
Rp57
I2
sg10
I2404
sg16
I207
ssI9
(dp58
g6
I6603
sg13
I1356
sg46
I426
sg48
I717
sg57
I5
sg10
I2183
sg16
I150
ssI10
(dp59
g6
I5178
sg13
I668
sg46
I212
sg48
I378
sg57
I9
sg10
I1495
sg16
I68
ssI11
(dp60
g6
I3132
sg13
I239
sg46
I81
sg48
I131
sg57
I5
sg10
I757
sg16
I23
ssI12
(dp61
g6
I1425
sg13
I64
sg46
I25
sg48
I27
sg57
I1
sg10
I273
sg16
I5
ssI13
(dp62
g6
I469
sg13
I11
sg46
I4
sg48
I3
sg10
I73
ssI14
(dp63
g16
I1
sg6
I105
sg13
I1
sg10
I13
ssI15
(dp64
g6
I15
sg10
I1
ssI16
(dp65
g6
I1
sssS'OR'
p66
(dp67
I0
(dp68
g16
I1
ssI1
(dp69
g16
I6
sg6
I1
sg46
I2
sg48
I1
sg10
I6
ssI2
(dp70
g16
I15
sg6
I14
sg46
I28
sg48
I12
sg10
I51
ssI3
(dp71
g16
I20
sg6
I91
sg46
I183
sg48
I66
sg10
I200
ssI4
(dp72
g16
I15
sg6
I364
sg46
I741
sg48
I220
sg10
I480
ssI5
(dp73
g16
I6
sg6
I1001
sg46
I2080
sg48
I495
sg10
I786
ssI6
(dp74
g16
I1
sg6
I2002
sg46
I4290
sg48
I791
sg10
I924
ssI7
(dp75
g6
I3004
sg46
I6721
sg48
I917
sg10
I798
ssI8
(dp76
g6
I3438
sg46
I8151
sg48
I771
sg10
I510
ssI9
(dp77
g6
I3018
sg46
I7722
sg48
I460
sg10
I240
ssI10
(dp78
g6
I2022
sg46
I5720
sg48
I185
sg10
I81
ssI11
(dp79
g6
I1016
sg46
I3289
sg48
I45
sg10
I18
ssI12
(dp80
g6
I370
sg46
I1443
sg48
I5
sg10
I2
ssI13
(dp81
g6
I92
sg46
I468
ssI14
(dp82
g6
I14
sg46
I106
ssI15
(dp83
g6
I1
sg46
I15
ssI16
(dp84
g46
I1
sss.