(dp0
S'AND'
p1
(dp2
I0
(dp3
cglitchresistor.emulator
Result
p4
(I1
tp5
Rp6
I1
ssI1
(dp7
g6
I16
ssI2
(dp8
g6
I119
sg4
(I7
tp9
Rp10
I1
ssI3
(dp11
g6
I547
sg4
(I2
tp12
Rp13
I1
sg10
I12
ssI4
(dp14
g4
(I8
tp15
Rp16
I1
sg6
I1741
sg13
I12
sg10
I66
ssI5
(dp17
g16
I12
sg6
I4070
sg13
I66
sg10
I220
ssI6
(dp18
g16
I66
sg6
I7227
sg13
I220
sg10
I495
ssI7
(dp19
g16
I220
sg6
I9933
sg13
I495
sg10
I792
ssI8
(dp20
g16
I495
sg6
I10659
sg13
I792
sg10
I924
ssI9
(dp21
g16
I792
sg6
I8932
sg13
I924
sg10
I792
ssI10
(dp22
g16
I924
sg6
I5797
sg13
I792
sg10
I495
ssI11
(dp23
g16
I792
sg6
I2861
sg13
I495
sg10
I220
ssI12
(dp24
g16
I495
sg6
I1039
sg13
I220
sg10
I66
ssI13
(dp25
g16
I220
sg6
I262
sg13
I66
sg10
I12
ssI14
(dp26
g16
I66
sg6
I41
sg13
I12
sg10
I1
ssI15
(dp27
g16
I12
sg6
I3
sg13
I1
ssI16
(dp28
g16
I1
sssS'input'
p29
(dp30
S'bytes_to_trash'
p31
(lp32
I2
aI3
asS'code'
p33
S'# config:{"bytes_to_trash": "2,3"}\ncmp r1, r0\nbhi .good\nmov r0, 0xdead\n.good:\nmov r1, 0xaaaa'
p34
sS'initial_code'
p35
(lp36
I129
aI66
aI1
aI216
aI77
aI246
aI173
aI96
aI74
aI246
aI170
aI33
asS'initial_bytes'
p37
(lp38
I1
aI216
asS'name'
p39
S'bhi.S'
p40
ssS'XOR'
p41
(dp42
I0
(dp43
g16
I1
ssI1
(dp44
g6
I4
sg13
I1
sg4
(I3
tp45
Rp46
I1
sg4
(I4
tp47
Rp48
I1
sg10
I6
sg16
I3
ssI2
(dp49
g6
I40
sg13
I18
sg46
I13
sg48
I10
sg10
I35
sg16
I4
ssI3
(dp50
g6
I200
sg13
I119
sg46
I69
sg48
I48
sg10
I114
sg16
I10
ssI4
(dp51
g6
I660
sg13
I449
sg46
I210
sg48
I152
sg10
I304
sg16
I45
ssI5
(dp52
g6
I1669
sg13
I1057
sg46
I432
sg48
I355
sg10
I740
sg16
I115
ssI6
(dp53
g6
I3346
sg13
I1746
sg46
I650
sg48
I622
sg10
I1458
sg16
I186
ssI7
(dp54
g6
I5315
sg13
I2162
sg46
I766
sg48
I828
sg10
I2176
sg16
I193
ssI8
(dp55
g6
I6738
sg13
I1948
sg46
I705
sg48
I891
sg10
I2438
sg16
I150
ssI9
(dp56
g6
I6667
sg13
I1378
sg46
I520
sg48
I734
sg4
(I6
tp57
Rp58
I2
sg10
I2053
sg16
I86
ssI10
(dp59
g6
I5161
sg13
I707
sg46
I316
sg48
I476
sg58
I5
sg10
I1306
sg16
I37
ssI11
(dp60
g6
I3071
sg13
I268
sg46
I149
sg48
I233
sg58
I9
sg10
I629
sg16
I9
ssI12
(dp61
g6
I1368
sg13
I80
sg46
I57
sg48
I77
sg58
I5
sg10
I228
sg16
I5
ssI13
(dp62
g6
I451
sg13
I13
sg46
I19
sg48
I15
sg58
I1
sg10
I60
sg16
I1
ssI14
(dp63
g6
I102
sg13
I1
sg46
I4
sg48
I1
sg10
I12
ssI15
(dp64
g6
I15
sg10
I1
ssI16
(dp65
g6
I1
sssS'OR'
p66
(dp67
I0
(dp68
g16
I1
ssI1
(dp69
g16
I7
sg6
I1
sg46
I1
sg48
I1
sg10
I6
ssI2
(dp70
g16
I20
sg6
I14
sg46
I16
sg48
I13
sg10
I57
ssI3
(dp71
g16
I33
sg6
I91
sg46
I114
sg48
I77
sg10
I245
ssI4
(dp72
g6
I364
sg13
I1
sg46
I487
sg48
I276
sg10
I635
sg16
I57
ssI5
(dp73
g6
I1001
sg13
I7
sg46
I1411
sg48
I671
sg10
I1111
sg16
I167
ssI6
(dp74
g6
I2002
sg13
I24
sg46
I2966
sg48
I1172
sg10
I1385
sg16
I459
ssI7
(dp75
g6
I3004
sg13
I50
sg46
I4716
sg48
I1518
sg10
I1261
sg16
I891
ssI8
(dp76
g6
I3439
sg13
I65
sg46
I5822
sg48
I1488
sg10
I845
sg16
I1211
ssI9
(dp77
g6
I3023
sg13
I51
sg46
I5656
sg48
I1126
sg10
I415
sg16
I1169
ssI10
(dp78
g6
I2032
sg13
I22
sg46
I4330
sg48
I677
sg10
I146
sg16
I801
ssI11
(dp79
g6
I1026
sg13
I4
sg46
I2586
sg48
I336
sg10
I34
sg16
I382
ssI12
(dp80
g16
I121
sg6
I375
sg46
I1180
sg48
I140
sg10
I4
ssI13
(dp81
g16
I23
sg6
I93
sg46
I398
sg48
I46
ssI14
(dp82
g16
I2
sg6
I14
sg46
I94
sg48
I10
ssI15
(dp83
g6
I1
sg46
I14
sg48
I1
ssI16
(dp84
g46
I1
sss.