(dp0
S'AND'
p1
(dp2
I0
(dp3
cglitchresistor.emulator
Result
p4
(I1
tp5
Rp6
I1
ssI1
(dp7
g6
I16
ssI2
(dp8
g6
I119
sg4
(I7
tp9
Rp10
I1
ssI3
(dp11
g6
I547
sg4
(I2
tp12
Rp13
I1
sg10
I12
ssI4
(dp14
g4
(I8
tp15
Rp16
I1
sg6
I1741
sg13
I12
sg10
I66
ssI5
(dp17
g16
I12
sg6
I4070
sg13
I66
sg10
I220
ssI6
(dp18
g16
I66
sg6
I7227
sg13
I220
sg10
I495
ssI7
(dp19
g16
I220
sg6
I9933
sg13
I495
sg10
I792
ssI8
(dp20
g16
I495
sg6
I10659
sg13
I792
sg10
I924
ssI9
(dp21
g16
I792
sg6
I8932
sg13
I924
sg10
I792
ssI10
(dp22
g16
I924
sg6
I5797
sg13
I792
sg10
I495
ssI11
(dp23
g16
I792
sg6
I2861
sg13
I495
sg10
I220
ssI12
(dp24
g16
I495
sg6
I1039
sg13
I220
sg10
I66
ssI13
(dp25
g16
I220
sg6
I262
sg13
I66
sg10
I12
ssI14
(dp26
g16
I66
sg6
I41
sg13
I12
sg10
I1
ssI15
(dp27
g16
I12
sg6
I3
sg13
I1
ssI16
(dp28
g16
I1
sssS'input'
p29
(dp30
S'bytes_to_trash'
p31
(lp32
I2
aI3
asS'code'
p33
S'# config:{"bytes_to_trash": "2,3"}\ncmp r1, r0\nbhi .good\nmov r0, 0xdead\n.good:\nmov r1, 0xaaaa'
p34
sS'initial_code'
p35
(lp36
I129
aI66
aI1
aI216
aI77
aI246
aI173
aI96
aI74
aI246
aI170
aI33
asS'initial_bytes'
p37
(lp38
I1
aI216
asS'name'
p39
S'bhi.S'
p40
ss.