(dp0
S'AND'
p1
(dp2
I0
(dp3
cglitchresistor.emulator
Result
p4
(I1
tp5
Rp6
I1
ssI1
(dp7
g6
I16
ssI2
(dp8
g6
I119
sg4
(I7
tp9
Rp10
I1
ssI3
(dp11
g6
I547
sg4
(I2
tp12
Rp13
I1
sg10
I12
ssI4
(dp14
g4
(I8
tp15
Rp16
I2
sg6
I1738
sg13
I12
sg10
I68
ssI5
(dp17
g16
I21
sg6
I4041
sg13
I68
sg10
I238
ssI6
(dp18
g16
I101
sg6
I7102
sg13
I238
sg10
I567
ssI7
(dp19
g16
I295
sg6
I9618
sg13
I567
sg10
I960
ssI8
(dp20
g16
I585
sg6
I10149
sg13
I960
sg10
I1176
ssI9
(dp21
g16
I834
sg6
I8386
sg13
I1176
sg10
I1044
ssI10
(dp22
g16
I882
sg6
I5419
sg13
I1044
sg10
I663
ssI11
(dp23
g16
I702
sg6
I2711
sg13
I663
sg10
I292
ssI12
(dp24
g16
I420
sg6
I1024
sg13
I292
sg10
I84
ssI13
(dp25
g16
I185
sg6
I277
sg13
I84
sg10
I14
ssI14
(dp26
g16
I57
sg6
I48
sg13
I14
sg10
I1
ssI15
(dp27
g16
I11
sg6
I4
sg13
I1
ssI16
(dp28
g16
I1
sssS'input'
p29
(dp30
S'bytes_to_trash'
p31
(lp32
I2
aI3
asS'code'
p33
S'# config:{"bytes_to_trash": "2,3"}\ncmp r0, r1\nble .good\nmov r0, 0xdead\n.good:\nmov r1, 0xaaaa'
p34
sS'initial_code'
p35
(lp36
I136
aI66
aI1
aI221
aI77
aI246
aI173
aI96
aI74
aI246
aI170
aI33
asS'initial_bytes'
p37
(lp38
I1
aI221
asS'name'
p39
S'ble.S'
p40
ss.