(dp0
S'AND'
p1
(dp2
I0
(dp3
cglitchresistor.emulator
Result
p4
(I1
tp5
Rp6
I1
ssI1
(dp7
g6
I16
ssI2
(dp8
g6
I119
sg4
(I7
tp9
Rp10
I1
ssI3
(dp11
g6
I547
sg4
(I2
tp12
Rp13
I1
sg10
I12
ssI4
(dp14
g4
(I8
tp15
Rp16
I2
sg6
I1738
sg13
I12
sg10
I68
ssI5
(dp17
g16
I21
sg6
I4041
sg13
I68
sg10
I238
ssI6
(dp18
g16
I101
sg6
I7102
sg13
I238
sg10
I567
ssI7
(dp19
g16
I295
sg6
I9618
sg13
I567
sg10
I960
ssI8
(dp20
g16
I585
sg6
I10149
sg13
I960
sg10
I1176
ssI9
(dp21
g16
I834
sg6
I8386
sg13
I1176
sg10
I1044
ssI10
(dp22
g16
I882
sg6
I5419
sg13
I1044
sg10
I663
ssI11
(dp23
g16
I702
sg6
I2711
sg13
I663
sg10
I292
ssI12
(dp24
g16
I420
sg6
I1024
sg13
I292
sg10
I84
ssI13
(dp25
g16
I185
sg6
I277
sg13
I84
sg10
I14
ssI14
(dp26
g16
I57
sg6
I48
sg13
I14
sg10
I1
ssI15
(dp27
g16
I11
sg6
I4
sg13
I1
ssI16
(dp28
g16
I1
sssS'input'
p29
(dp30
S'bytes_to_trash'
p31
(lp32
I2
aI3
asS'code'
p33
S'# config:{"bytes_to_trash": "2,3"}\ncmp r0, r1\nble .good\nmov r0, 0xdead\n.good:\nmov r1, 0xaaaa'
p34
sS'initial_code'
p35
(lp36
I136
aI66
aI1
aI221
aI77
aI246
aI173
aI96
aI74
aI246
aI170
aI33
asS'initial_bytes'
p37
(lp38
I1
aI221
asS'name'
p39
S'ble.S'
p40
ssS'XOR'
p41
(dp42
I0
(dp43
g16
I1
ssI1
(dp44
g6
I5
sg13
I1
sg4
(I3
tp45
Rp46
I1
sg4
(I4
tp47
Rp48
I1
sg10
I6
sg16
I2
ssI2
(dp49
g6
I44
sg13
I20
sg46
I13
sg48
I10
sg10
I28
sg16
I5
ssI3
(dp50
g6
I203
sg13
I125
sg46
I72
sg48
I52
sg10
I101
sg16
I7
ssI4
(dp51
g6
I645
sg13
I456
sg46
I231
sg48
I178
sg10
I293
sg16
I17
ssI5
(dp52
g6
I1604
sg13
I1103
sg46
I492
sg48
I404
sg10
I711
sg16
I54
ssI6
(dp53
g6
I3230
sg13
I1794
sg46
I736
sg48
I748
sg10
I1377
sg16
I123
ssI7
(dp54
g6
I5184
sg13
I2217
sg46
I824
sg48
I963
sg4
(I6
tp55
Rp56
I2
sg10
I2063
sg16
I187
ssI8
(dp57
g6
I6680
sg13
I1961
sg46
I698
sg48
I938
sg56
I5
sg10
I2384
sg16
I204
ssI9
(dp58
g6
I6735
sg13
I1321
sg46
I471
sg48
I673
sg56
I9
sg10
I2087
sg16
I144
ssI10
(dp59
g6
I5301
sg13
I646
sg46
I247
sg48
I332
sg56
I5
sg10
I1408
sg16
I69
ssI11
(dp60
g6
I3187
sg13
I238
sg46
I93
sg48
I114
sg56
I1
sg10
I716
sg16
I19
ssI12
(dp61
g6
I1425
sg13
I67
sg46
I26
sg48
I26
sg10
I273
sg16
I3
ssI13
(dp62
g6
I469
sg13
I12
sg46
I5
sg48
I3
sg10
I71
ssI14
(dp63
g6
I106
sg13
I1
sg10
I13
ssI15
(dp64
g6
I15
sg10
I1
ssI16
(dp65
g6
I1
sssS'OR'
p66
(dp67
I0
(dp68
g16
I1
ssI1
(dp69
g16
I7
sg6
I1
sg46
I1
sg48
I1
sg10
I6
ssI2
(dp70
g16
I21
sg6
I14
sg46
I15
sg48
I13
sg10
I57
ssI3
(dp71
g16
I35
sg6
I91
sg46
I105
sg48
I78
sg10
I251
ssI4
(dp72
g16
I35
sg6
I364
sg46
I455
sg48
I286
sg10
I680
ssI5
(dp73
g16
I21
sg6
I1001
sg46
I1365
sg48
I715
sg10
I1266
ssI6
(dp74
g16
I7
sg6
I2002
sg46
I3003
sg48
I1286
sg10
I1710
ssI7
(dp75
g16
I1
sg6
I3004
sg46
I5005
sg48
I1708
sg10
I1722
ssI8
(dp76
g6
I3439
sg46
I6435
sg48
I1688
sg10
I1308
ssI9
(dp77
g6
I3024
sg46
I6435
sg48
I1231
sg10
I750
ssI10
(dp78
g6
I2037
sg46
I5005
sg48
I645
sg10
I321
ssI11
(dp79
g6
I1036
sg46
I3003
sg48
I230
sg10
I99
ssI12
(dp80
g6
I385
sg46
I1365
sg48
I50
sg10
I20
ssI13
(dp81
g6
I98
sg46
I455
sg48
I5
sg10
I2
ssI14
(dp82
g6
I15
sg46
I105
ssI15
(dp83
g6
I1
sg46
I15
ssI16
(dp84
g46
I1
sss.