(dp0
S'input'
p1
(dp2
S'bytes_to_trash'
p3
(lp4
I2
aI3
asS'code'
p5
S'# config:{"bytes_to_trash": "2,3"}\ncmp r0, r1\nbls .good\nmov r0, 0xdead\n.good:\nmov r1, 0xaaaa'
p6
sS'initial_code'
p7
(lp8
I136
aI66
aI1
aI217
aI77
aI246
aI173
aI96
aI74
aI246
aI170
aI33
asS'initial_bytes'
p9
(lp10
I1
aI217
asS'name'
p11
S'bls.S'
p12
ssS'OR'
p13
(dp14
I0
(dp15
cglitchresistor.emulator
Result
p16
(I8
tp17
Rp18
I1
ssI1
(dp19
g18
I8
sg16
(I3
tp20
Rp21
I1
sg16
(I4
tp22
Rp23
I1
sg16
(I7
tp24
Rp25
I6
ssI2
(dp26
g18
I28
sg16
(I1
tp27
Rp28
I1
sg21
I14
sg23
I14
sg25
I63
ssI3
(dp29
g18
I63
sg28
I13
sg21
I91
sg23
I91
sg25
I302
ssI4
(dp30
g18
I132
sg28
I78
sg21
I367
sg23
I363
sg25
I880
ssI5
(dp31
g18
I312
sg28
I286
sg21
I1033
sg23
I991
sg25
I1746
ssI6
(dp32
g18
I680
sg28
I715
sg21
I2161
sg23
I1956
sg25
I2496
ssI7
(dp33
g18
I1145
sg28
I1288
sg21
I3487
sg23
I2874
sg25
I2646
ssI8
(dp34
g18
I1421
sg28
I1724
sg21
I4432
sg23
I3187
sg25
I2106
ssI9
(dp35
g18
I1289
sg28
I1743
sg21
I4474
sg23
I2674
sg25
I1260
ssI10
(dp36
g18
I846
sg28
I1337
sg21
I3577
sg23
I1687
sg25
I561
ssI11
(dp37
g18
I392
sg28
I770
sg21
I2236
sg23
I790
sg25
I180
ssI12
(dp38
g18
I122
sg28
I322
sg21
I1068
sg23
I270
sg25
I38
ssI13
(dp39
g18
I23
sg28
I91
sg21
I376
sg23
I66
sg25
I4
ssI14
(dp40
g18
I2
sg28
I15
sg21
I92
sg23
I11
ssI15
(dp41
g28
I1
sg21
I14
sg23
I1
ssI16
(dp42
g21
I1
sss.