(dp0
S'AND'
p1
(dp2
I0
(dp3
cglitchresistor.emulator
Result
p4
(I1
tp5
Rp6
I1
ssI1
(dp7
g6
I16
ssI2
(dp8
g6
I119
sg4
(I7
tp9
Rp10
I1
ssI3
(dp11
g6
I547
sg4
(I2
tp12
Rp13
I1
sg10
I12
ssI4
(dp14
g4
(I8
tp15
Rp16
I1
sg6
I1740
sg13
I12
sg10
I67
ssI5
(dp17
g16
I12
sg6
I4059
sg13
I67
sg10
I230
ssI6
(dp18
g16
I66
sg6
I7172
sg13
I230
sg10
I540
ssI7
(dp19
g16
I220
sg6
I9768
sg13
I540
sg10
I912
ssI8
(dp20
g16
I495
sg6
I10329
sg13
I912
sg10
I1134
ssI9
(dp21
g16
I792
sg6
I8470
sg13
I1134
sg10
I1044
ssI10
(dp22
g16
I924
sg6
I5335
sg13
I1044
sg10
I705
ssI11
(dp23
g16
I792
sg6
I2531
sg13
I705
sg10
I340
ssI12
(dp24
g16
I495
sg6
I874
sg13
I340
sg10
I111
ssI13
(dp25
g16
I220
sg6
I207
sg13
I111
sg10
I22
ssI14
(dp26
g16
I66
sg6
I30
sg13
I22
sg10
I2
ssI15
(dp27
g16
I12
sg6
I2
sg13
I2
ssI16
(dp28
g16
I1
sssS'input'
p29
(dp30
S'bytes_to_trash'
p31
(lp32
I2
aI3
asS'code'
p33
S'# config:{"bytes_to_trash": "2,3"}\ncmp r0, r1\nbls .good\nmov r0, 0xdead\n.good:\nmov r1, 0xaaaa'
p34
sS'initial_code'
p35
(lp36
I136
aI66
aI1
aI217
aI77
aI246
aI173
aI96
aI74
aI246
aI170
aI33
asS'initial_bytes'
p37
(lp38
I1
aI217
asS'name'
p39
S'bls.S'
p40
ssS'XOR'
p41
(dp42
I0
(dp43
g16
I1
ssI1
(dp44
g6
I2
sg13
I2
sg4
(I3
tp45
Rp46
I1
sg4
(I4
tp47
Rp48
I1
sg10
I6
sg16
I4
ssI2
(dp49
g6
I26
sg13
I25
sg46
I10
sg48
I11
sg10
I42
sg16
I6
ssI3
(dp50
g6
I155
sg13
I141
sg46
I49
sg48
I56
sg10
I141
sg16
I18
ssI4
(dp51
g6
I593
sg13
I466
sg46
I159
sg48
I179
sg10
I373
sg16
I50
ssI5
(dp52
g6
I1605
sg13
I1063
sg46
I365
sg48
I403
sg10
I824
sg16
I108
ssI6
(dp53
g6
I3300
sg13
I1776
sg46
I620
sg48
I644
sg10
I1494
sg16
I174
ssI7
(dp54
g6
I5319
sg13
I2138
sg46
I786
sg48
I848
sg10
I2145
sg16
I204
ssI8
(dp55
g6
I6737
sg13
I1983
sg46
I771
sg48
I859
sg4
(I6
tp56
Rp57
I2
sg10
I2357
sg16
I161
ssI9
(dp58
g6
I6749
sg13
I1321
sg46
I584
sg48
I705
sg57
I5
sg10
I1996
sg16
I80
ssI10
(dp59
g6
I5245
sg13
I687
sg46
I338
sg48
I446
sg57
I9
sg10
I1258
sg16
I25
ssI11
(dp60
g6
I3126
sg13
I259
sg46
I154
sg48
I208
sg57
I5
sg10
I611
sg16
I5
ssI12
(dp61
g6
I1406
sg13
I70
sg46
I53
sg48
I69
sg57
I1
sg10
I221
ssI13
(dp62
g6
I459
sg13
I13
sg46
I14
sg48
I11
sg10
I62
sg16
I1
ssI14
(dp63
g6
I103
sg13
I1
sg46
I3
sg48
I1
sg10
I11
sg16
I1
ssI15
(dp64
g6
I15
sg10
I1
ssI16
(dp65
g6
I1
sssS'OR'
p66
(dp67
I0
(dp68
g16
I1
ssI1
(dp69
g16
I8
sg46
I1
sg48
I1
sg10
I6
ssI2
(dp70
g16
I28
sg6
I1
sg46
I14
sg48
I14
sg10
I63
ssI3
(dp71
g16
I63
sg6
I13
sg46
I91
sg48
I91
sg10
I302
ssI4
(dp72
g16
I132
sg6
I78
sg46
I367
sg48
I363
sg10
I880
ssI5
(dp73
g16
I312
sg6
I286
sg46
I1033
sg48
I991
sg10
I1746
ssI6
(dp74
g16
I680
sg6
I715
sg46
I2161
sg48
I1956
sg10
I2496
ssI7
(dp75
g16
I1145
sg6
I1288
sg46
I3487
sg48
I2874
sg10
I2646
ssI8
(dp76
g16
I1421
sg6
I1724
sg46
I4432
sg48
I3187
sg10
I2106
ssI9
(dp77
g16
I1289
sg6
I1743
sg46
I4474
sg48
I2674
sg10
I1260
ssI10
(dp78
g16
I846
sg6
I1337
sg46
I3577
sg48
I1687
sg10
I561
ssI11
(dp79
g16
I392
sg6
I770
sg46
I2236
sg48
I790
sg10
I180
ssI12
(dp80
g16
I122
sg6
I322
sg46
I1068
sg48
I270
sg10
I38
ssI13
(dp81
g16
I23
sg6
I91
sg46
I376
sg48
I66
sg10
I4
ssI14
(dp82
g16
I2
sg6
I15
sg46
I92
sg48
I11
ssI15
(dp83
g6
I1
sg46
I14
sg48
I1
ssI16
(dp84
g46
I1
sss.