(dp0
S'AND'
p1
(dp2
I0
(dp3
cglitchresistor.emulator
Result
p4
(I1
tp5
Rp6
I1
ssI1
(dp7
g6
I16
ssI2
(dp8
g6
I119
sg4
(I7
tp9
Rp10
I1
ssI3
(dp11
g6
I547
sg4
(I2
tp12
Rp13
I1
sg10
I12
ssI4
(dp14
g4
(I8
tp15
Rp16
I1
sg6
I1739
sg13
I12
sg10
I68
ssI5
(dp17
g16
I12
sg6
I4049
sg13
I68
sg10
I239
ssI6
(dp18
g16
I66
sg6
I7127
sg13
I239
sg10
I576
ssI7
(dp19
g16
I220
sg6
I9648
sg13
I576
sg10
I996
ssI8
(dp20
g16
I495
sg6
I10119
sg13
I996
sg10
I1260
ssI9
(dp21
g16
I792
sg6
I8218
sg13
I1260
sg10
I1170
ssI10
(dp22
g16
I924
sg6
I5125
sg13
I1170
sg10
I789
ssI11
(dp23
g16
I792
sg6
I2411
sg13
I789
sg10
I376
ssI12
(dp24
g16
I495
sg6
I829
sg13
I376
sg10
I120
ssI13
(dp25
g16
I220
sg6
I197
sg13
I120
sg10
I23
ssI14
(dp26
g16
I66
sg6
I29
sg13
I23
sg10
I2
ssI15
(dp27
g16
I12
sg6
I2
sg13
I2
ssI16
(dp28
g16
I1
sssS'input'
p29
(dp30
S'bytes_to_trash'
p31
(lp32
I2
aI3
asS'code'
p33
S'# config:{"bytes_to_trash": "2,3"}\ncmp r0, r1\nblt .good\nmov r0, 0xdead\n.good:\nmov r1, 0xaaaa'
p34
sS'initial_code'
p35
(lp36
I136
aI66
aI1
aI219
aI77
aI246
aI173
aI96
aI74
aI246
aI170
aI33
asS'initial_bytes'
p37
(lp38
I1
aI219
asS'name'
p39
S'blt.S'
p40
ss.