(dp0
S'AND'
p1
(dp2
I0
(dp3
cglitchresistor.emulator
Result
p4
(I1
tp5
Rp6
I1
ssI1
(dp7
g6
I16
ssI2
(dp8
g6
I119
sg4
(I7
tp9
Rp10
I1
ssI3
(dp11
g6
I547
sg4
(I2
tp12
Rp13
I1
sg10
I12
ssI4
(dp14
g4
(I8
tp15
Rp16
I1
sg6
I1739
sg13
I12
sg10
I68
ssI5
(dp17
g16
I12
sg6
I4049
sg13
I68
sg10
I239
ssI6
(dp18
g16
I66
sg6
I7127
sg13
I239
sg10
I576
ssI7
(dp19
g16
I220
sg6
I9648
sg13
I576
sg10
I996
ssI8
(dp20
g16
I495
sg6
I10119
sg13
I996
sg10
I1260
ssI9
(dp21
g16
I792
sg6
I8218
sg13
I1260
sg10
I1170
ssI10
(dp22
g16
I924
sg6
I5125
sg13
I1170
sg10
I789
ssI11
(dp23
g16
I792
sg6
I2411
sg13
I789
sg10
I376
ssI12
(dp24
g16
I495
sg6
I829
sg13
I376
sg10
I120
ssI13
(dp25
g16
I220
sg6
I197
sg13
I120
sg10
I23
ssI14
(dp26
g16
I66
sg6
I29
sg13
I23
sg10
I2
ssI15
(dp27
g16
I12
sg6
I2
sg13
I2
ssI16
(dp28
g16
I1
sssS'input'
p29
(dp30
S'bytes_to_trash'
p31
(lp32
I2
aI3
asS'code'
p33
S'# config:{"bytes_to_trash": "2,3"}\ncmp r0, r1\nblt .good\nmov r0, 0xdead\n.good:\nmov r1, 0xaaaa'
p34
sS'initial_code'
p35
(lp36
I136
aI66
aI1
aI219
aI77
aI246
aI173
aI96
aI74
aI246
aI170
aI33
asS'initial_bytes'
p37
(lp38
I1
aI219
asS'name'
p39
S'blt.S'
p40
ssS'XOR'
p41
(dp42
I0
(dp43
g16
I1
ssI1
(dp44
g16
I4
sg6
I3
sg13
I2
sg4
(I4
tp45
Rp46
I1
sg10
I6
ssI2
(dp47
g6
I29
sg13
I27
sg4
(I3
tp48
Rp49
I4
sg46
I11
sg10
I36
sg16
I13
ssI3
(dp50
g6
I150
sg13
I152
sg49
I37
sg46
I55
sg10
I132
sg16
I34
ssI4
(dp51
g6
I547
sg13
I504
sg49
I152
sg46
I171
sg10
I364
sg16
I82
ssI5
(dp52
g6
I1513
sg13
I1109
sg49
I382
sg46
I383
sg10
I829
sg16
I152
ssI6
(dp53
g6
I3215
sg13
I1762
sg49
I660
sg46
I659
sg10
I1506
sg16
I206
ssI7
(dp54
g6
I5295
sg13
I2119
sg49
I843
sg46
I855
sg4
(I6
tp55
Rp56
I2
sg10
I2137
sg16
I189
ssI8
(dp57
g6
I6816
sg13
I1894
sg49
I803
sg46
I894
sg56
I5
sg10
I2346
sg16
I112
ssI9
(dp58
g6
I6799
sg13
I1339
sg49
I580
sg46
I706
sg56
I9
sg10
I1973
sg16
I34
ssI10
(dp59
g6
I5314
sg13
I674
sg49
I300
sg46
I432
sg56
I5
sg10
I1277
sg16
I6
ssI11
(dp60
g6
I3165
sg13
I275
sg49
I108
sg46
I198
sg56
I1
sg10
I620
sg16
I1
ssI12
(dp61
g6
I1425
sg13
I74
sg49
I24
sg46
I60
sg10
I235
sg16
I2
ssI13
(dp62
g6
I467
sg13
I14
sg49
I4
sg46
I12
sg10
I62
sg16
I1
ssI14
(dp63
g6
I105
sg13
I1
sg49
I2
sg46
I1
sg10
I11
ssI15
(dp64
g6
I14
sg49
I1
sg10
I1
ssI16
(dp65
g6
I1
sssS'OR'
p66
(dp67
I0
(dp68
g16
I1
ssI1
(dp69
g16
I8
sg6
I1
sg46
I1
sg10
I6
ssI2
(dp70
g16
I34
sg6
I14
sg49
I1
sg46
I14
sg10
I57
ssI3
(dp71
g16
I114
sg6
I91
sg49
I14
sg46
I90
sg10
I251
ssI4
(dp72
g16
I332
sg6
I364
sg49
I91
sg46
I353
sg10
I680
ssI5
(dp73
g16
I791
sg6
I1001
sg49
I364
sg46
I946
sg10
I1266
ssI6
(dp74
g16
I1459
sg6
I2002
sg49
I1001
sg46
I1836
sg10
I1710
ssI7
(dp75
g16
I2047
sg6
I3004
sg49
I2002
sg46
I2665
sg10
I1722
ssI8
(dp76
g16
I2178
sg6
I3439
sg49
I3003
sg46
I2942
sg10
I1308
ssI9
(dp77
g16
I1749
sg6
I3024
sg49
I3432
sg46
I2485
sg10
I750
ssI10
(dp78
g16
I1045
sg6
I2037
sg49
I3003
sg46
I1602
sg10
I321
ssI11
(dp79
g16
I451
sg6
I1036
sg49
I2002
sg46
I780
sg10
I99
ssI12
(dp80
g16
I133
sg6
I385
sg49
I1001
sg46
I281
sg10
I20
ssI13
(dp81
g16
I24
sg6
I98
sg49
I364
sg46
I72
sg10
I2
ssI14
(dp82
g16
I2
sg6
I15
sg49
I91
sg46
I12
ssI15
(dp83
g6
I1
sg49
I14
sg46
I1
ssI16
(dp84
g49
I1
sss.