(dp0
S'AND'
p1
(dp2
I0
(dp3
cglitchresistor.emulator
Result
p4
(I1
tp5
Rp6
I1
ssI1
(dp7
g6
I15
sg4
(I7
tp8
Rp9
I1
ssI2
(dp10
g6
I106
sg9
I14
ssI3
(dp11
g6
I468
sg9
I92
ssI4
(dp12
g4
(I8
tp13
Rp14
I1
sg6
I1443
sg9
I376
ssI5
(dp15
g14
I12
sg6
I3289
sg9
I1067
ssI6
(dp16
g14
I66
sg6
I5720
sg9
I2222
ssI7
(dp17
g14
I220
sg6
I7722
sg9
I3498
ssI8
(dp18
g14
I495
sg6
I8151
sg9
I4224
ssI9
(dp19
g14
I792
sg6
I6721
sg9
I3927
ssI10
(dp20
g14
I924
sg6
I4290
sg9
I2794
ssI11
(dp21
g14
I792
sg6
I2080
sg9
I1496
ssI12
(dp22
g14
I495
sg6
I741
sg9
I584
ssI13
(dp23
g14
I220
sg6
I183
sg9
I157
ssI14
(dp24
g14
I66
sg6
I28
sg9
I26
ssI15
(dp25
g14
I12
sg6
I2
sg9
I2
ssI16
(dp26
g14
I1
sssS'input'
p27
(dp28
S'bytes_to_trash'
p29
(lp30
I2
aI3
asS'code'
p31
S'# config:{"bytes_to_trash": "2,3"}\nsubs r0, r1, r7\nbmi .good\nmov r0, 0xdead\n.good:\nmov r1, 0xaaaa'
p32
sS'initial_code'
p33
(lp34
I200
aI27
aI1
aI212
aI77
aI246
aI173
aI96
aI74
aI246
aI170
aI33
asS'initial_bytes'
p35
(lp36
I1
aI212
asS'name'
p37
S'bmi.S'
p38
ss.