(dp0
S'AND'
p1
(dp2
I0
(dp3
cglitchresistor.emulator
Result
p4
(I1
tp5
Rp6
I1
ssI1
(dp7
g6
I15
sg4
(I7
tp8
Rp9
I1
ssI2
(dp10
g6
I106
sg9
I14
ssI3
(dp11
g6
I468
sg9
I92
ssI4
(dp12
g4
(I8
tp13
Rp14
I1
sg6
I1443
sg9
I376
ssI5
(dp15
g14
I12
sg6
I3289
sg9
I1067
ssI6
(dp16
g14
I66
sg6
I5720
sg9
I2222
ssI7
(dp17
g14
I220
sg6
I7722
sg9
I3498
ssI8
(dp18
g14
I495
sg6
I8151
sg9
I4224
ssI9
(dp19
g14
I792
sg6
I6721
sg9
I3927
ssI10
(dp20
g14
I924
sg6
I4290
sg9
I2794
ssI11
(dp21
g14
I792
sg6
I2080
sg9
I1496
ssI12
(dp22
g14
I495
sg6
I741
sg9
I584
ssI13
(dp23
g14
I220
sg6
I183
sg9
I157
ssI14
(dp24
g14
I66
sg6
I28
sg9
I26
ssI15
(dp25
g14
I12
sg6
I2
sg9
I2
ssI16
(dp26
g14
I1
sssS'input'
p27
(dp28
S'bytes_to_trash'
p29
(lp30
I2
aI3
asS'code'
p31
S'# config:{"bytes_to_trash": "2,3"}\nsubs r0, r1, r7\nbmi .good\nmov r0, 0xdead\n.good:\nmov r1, 0xaaaa'
p32
sS'initial_code'
p33
(lp34
I200
aI27
aI1
aI212
aI77
aI246
aI173
aI96
aI74
aI246
aI170
aI33
asS'initial_bytes'
p35
(lp36
I1
aI212
asS'name'
p37
S'bmi.S'
p38
ssS'XOR'
p39
(dp40
I0
(dp41
g14
I1
ssI1
(dp42
g14
I1
sg6
I5
sg4
(I4
tp43
Rp44
I2
sg9
I8
ssI2
(dp45
g6
I46
sg4
(I2
tp46
Rp47
I3
sg4
(I3
tp48
Rp49
I2
sg44
I19
sg9
I47
sg14
I3
ssI3
(dp50
g6
I203
sg47
I36
sg49
I21
sg44
I89
sg9
I205
sg14
I6
ssI4
(dp51
g6
I623
sg47
I197
sg49
I102
sg44
I270
sg9
I624
sg14
I4
ssI5
(dp52
g6
I1497
sg47
I622
sg49
I302
sg44
I580
sg9
I1360
sg14
I7
ssI6
(dp53
g6
I2951
sg47
I1329
sg49
I602
sg44
I907
sg9
I2176
sg14
I43
ssI7
(dp54
g6
I4727
sg47
I2113
sg49
I847
sg44
I1007
sg9
I2628
sg14
I118
ssI8
(dp55
g6
I6154
sg47
I2401
sg49
I851
sg44
I832
sg9
I2435
sg14
I197
ssI9
(dp56
g6
I6298
sg47
I2091
sg49
I641
sg44
I476
sg4
(I6
tp57
Rp58
I2
sg9
I1724
sg14
I208
ssI10
(dp59
g6
I5048
sg47
I1330
sg49
I357
sg44
I194
sg58
I5
sg9
I926
sg14
I148
ssI11
(dp60
g6
I3082
sg47
I638
sg49
I137
sg44
I55
sg58
I9
sg9
I377
sg14
I70
ssI12
(dp61
g6
I1402
sg47
I229
sg49
I37
sg44
I10
sg58
I5
sg9
I117
sg14
I20
ssI13
(dp62
g6
I464
sg47
I61
sg49
I7
sg44
I1
sg58
I1
sg9
I23
sg14
I3
ssI14
(dp63
g6
I105
sg47
I11
sg49
I1
sg44
I1
sg9
I2
ssI15
(dp64
g6
I15
sg47
I1
ssI16
(dp65
g6
I1
sssS'OR'
p66
(dp67
I0
(dp68
g14
I1
ssI1
(dp69
g14
I5
sg6
I3
sg44
I2
sg9
I6
ssI2
(dp70
g14
I12
sg6
I36
sg49
I2
sg44
I25
sg9
I45
ssI3
(dp71
g14
I20
sg6
I199
sg49
I26
sg44
I148
sg9
I167
ssI4
(dp72
g14
I25
sg6
I672
sg49
I157
sg44
I551
sg9
I415
ssI5
(dp73
g14
I21
sg6
I1551
sg49
I584
sg44
I1441
sg9
I771
ssI6
(dp74
g14
I10
sg6
I2596
sg49
I1496
sg44
I2793
sg9
I1113
ssI7
(dp75
g14
I2
sg6
I3268
sg49
I2794
sg44
I4119
sg9
I1257
ssI8
(dp76
g6
I3173
sg49
I3927
sg44
I4669
sg9
I1101
ssI9
(dp77
g6
I2421
sg49
I4224
sg44
I4060
sg9
I735
ssI10
(dp78
g6
I1472
sg49
I3498
sg44
I2672
sg9
I366
ssI11
(dp79
g6
I718
sg49
I2222
sg44
I1296
sg9
I132
ssI12
(dp80
g6
I277
sg49
I1067
sg44
I444
sg9
I32
ssI13
(dp81
g6
I79
sg49
I376
sg44
I101
sg9
I4
ssI14
(dp82
g6
I14
sg49
I92
sg44
I14
ssI15
(dp83
g6
I1
sg49
I14
sg44
I1
ssI16
(dp84
g49
I1
sss.