(dp0
S'AND'
p1
(dp2
I0
(dp3
cglitchresistor.emulator
Result
p4
(I1
tp5
Rp6
I1
ssI1
(dp7
g6
I16
ssI2
(dp8
g6
I119
sg4
(I7
tp9
Rp10
I1
ssI3
(dp11
g6
I547
sg10
I13
ssI4
(dp12
g4
(I8
tp13
Rp14
I1
sg6
I1740
sg10
I79
ssI5
(dp15
g14
I12
sg6
I4059
sg10
I297
ssI6
(dp16
g14
I66
sg6
I7172
sg10
I770
ssI7
(dp17
g14
I220
sg6
I9768
sg10
I1452
ssI8
(dp18
g14
I495
sg6
I10329
sg10
I2046
ssI9
(dp19
g14
I792
sg6
I8470
sg10
I2178
ssI10
(dp20
g14
I924
sg6
I5335
sg10
I1749
ssI11
(dp21
g14
I792
sg6
I2531
sg10
I1045
ssI12
(dp22
g14
I495
sg6
I874
sg10
I451
ssI13
(dp23
g14
I220
sg6
I207
sg10
I133
ssI14
(dp24
g14
I66
sg6
I30
sg10
I24
ssI15
(dp25
g14
I12
sg6
I2
sg10
I2
ssI16
(dp26
g14
I1
sssS'input'
p27
(dp28
S'bytes_to_trash'
p29
(lp30
I2
aI3
asS'code'
p31
S'# config:{"bytes_to_trash": "2,3"}\ncmp r0, r1\nbne .fail\nmov r0, 0xdead\n.fail:\nmov r1, 0xaaaa'
p32
sS'initial_code'
p33
(lp34
I136
aI66
aI1
aI209
aI77
aI246
aI173
aI96
aI74
aI246
aI170
aI33
asS'initial_bytes'
p35
(lp36
I1
aI209
asS'name'
p37
S'bne.S'
p38
ssS'XOR'
p39
(dp40
I0
(dp41
g14
I1
ssI1
(dp42
g14
I3
sg6
I3
sg4
(I4
tp43
Rp44
I2
sg10
I8
ssI2
(dp45
g6
I32
sg4
(I2
tp46
Rp47
I2
sg4
(I3
tp48
Rp49
I1
sg44
I20
sg10
I59
sg14
I6
ssI3
(dp50
g6
I172
sg47
I26
sg49
I10
sg44
I95
sg10
I250
sg14
I7
ssI4
(dp51
g6
I629
sg47
I150
sg49
I50
sg44
I282
sg10
I693
sg14
I16
ssI5
(dp52
g6
I1664
sg47
I494
sg49
I169
sg44
I584
sg10
I1410
sg14
I47
ssI6
(dp53
g6
I3358
sg47
I1127
sg49
I399
sg44
I885
sg10
I2132
sg14
I107
ssI7
(dp54
g6
I5319
sg47
I1861
sg49
I688
sg44
I968
sg10
I2431
sg14
I173
ssI8
(dp55
g6
I6705
sg47
I2183
sg49
I870
sg44
I814
sg10
I2093
sg14
I205
ssI9
(dp56
g6
I6651
sg47
I1946
sg49
I817
sg44
I490
sg4
(I6
tp57
Rp58
I2
sg10
I1368
sg14
I166
ssI10
(dp59
g6
I5196
sg47
I1241
sg49
I552
sg44
I220
sg58
I5
sg10
I710
sg14
I84
ssI11
(dp60
g6
I3107
sg47
I614
sg49
I258
sg44
I69
sg58
I9
sg10
I290
sg14
I21
ssI12
(dp61
g6
I1400
sg47
I223
sg49
I78
sg44
I18
sg58
I5
sg10
I93
sg14
I3
ssI13
(dp62
g6
I462
sg47
I60
sg49
I14
sg44
I4
sg58
I1
sg10
I19
ssI14
(dp63
g6
I105
sg47
I11
sg49
I1
sg44
I1
sg10
I2
ssI15
(dp64
g6
I15
sg47
I1
ssI16
(dp65
g6
I1
sssS'OR'
p66
(dp67
I0
(dp68
g14
I1
ssI1
(dp69
g14
I7
sg6
I1
sg44
I2
sg10
I6
ssI2
(dp70
g14
I23
sg6
I12
sg49
I1
sg44
I27
sg10
I57
ssI3
(dp71
g14
I46
sg6
I67
sg49
I13
sg44
I171
sg10
I263
ssI4
(dp72
g14
I67
sg6
I232
sg49
I78
sg44
I673
sg10
I770
ssI5
(dp73
g14
I106
sg6
I561
sg49
I289
sg44
I1836
sg10
I1576
ssI6
(dp74
g14
I228
sg6
I1012
sg49
I744
sg44
I3664
sg10
I2360
ssI7
(dp75
g14
I459
sg6
I1420
sg49
I1417
sg44
I5500
sg10
I2644
ssI8
(dp76
g14
I687
sg6
I1591
sg49
I2070
sg44
I6288
sg10
I2234
ssI9
(dp77
g14
I734
sg6
I1442
sg49
I2362
sg44
I5482
sg10
I1420
ssI10
(dp78
g14
I555
sg6
I1057
sg49
I2112
sg44
I3613
sg10
I671
ssI11
(dp79
g14
I291
sg6
I616
sg49
I1465
sg44
I1767
sg10
I229
ssI12
(dp80
g14
I101
sg6
I273
sg49
I771
sg44
I623
sg10
I52
ssI13
(dp81
g14
I21
sg6
I84
sg49
I297
sg44
I152
sg10
I6
ssI14
(dp82
g14
I2
sg6
I15
sg49
I79
sg44
I24
ssI15
(dp83
g6
I1
sg49
I13
sg44
I2
ssI16
(dp84
g49
I1
sss.