(dp0
S'input'
p1
(dp2
S'bytes_to_trash'
p3
(lp4
I2
aI3
asS'code'
p5
S'# config:{"bytes_to_trash": "2,3"}\ncmp r0, r1\nbne .fail\nmov r0, 0xdead\n.fail:\nmov r1, 0xaaaa'
p6
sS'initial_code'
p7
(lp8
I136
aI66
aI1
aI209
aI77
aI246
aI173
aI96
aI74
aI246
aI170
aI33
asS'initial_bytes'
p9
(lp10
I1
aI209
asS'name'
p11
S'bne.S'
p12
ssS'OR'
p13
(dp14
I0
(dp15
cglitchresistor.emulator
Result
p16
(I8
tp17
Rp18
I1
ssI1
(dp19
g18
I7
sg16
(I1
tp20
Rp21
I1
sg16
(I4
tp22
Rp23
I2
sg16
(I7
tp24
Rp25
I6
ssI2
(dp26
g18
I23
sg21
I12
sg16
(I3
tp27
Rp28
I1
sg23
I27
sg25
I57
ssI3
(dp29
g18
I46
sg21
I67
sg28
I13
sg23
I171
sg25
I263
ssI4
(dp30
g18
I67
sg21
I232
sg28
I78
sg23
I673
sg25
I770
ssI5
(dp31
g18
I106
sg21
I561
sg28
I289
sg23
I1836
sg25
I1576
ssI6
(dp32
g18
I228
sg21
I1012
sg28
I744
sg23
I3664
sg25
I2360
ssI7
(dp33
g18
I459
sg21
I1420
sg28
I1417
sg23
I5500
sg25
I2644
ssI8
(dp34
g18
I687
sg21
I1591
sg28
I2070
sg23
I6288
sg25
I2234
ssI9
(dp35
g18
I734
sg21
I1442
sg28
I2362
sg23
I5482
sg25
I1420
ssI10
(dp36
g18
I555
sg21
I1057
sg28
I2112
sg23
I3613
sg25
I671
ssI11
(dp37
g18
I291
sg21
I616
sg28
I1465
sg23
I1767
sg25
I229
ssI12
(dp38
g18
I101
sg21
I273
sg28
I771
sg23
I623
sg25
I52
ssI13
(dp39
g18
I21
sg21
I84
sg28
I297
sg23
I152
sg25
I6
ssI14
(dp40
g18
I2
sg21
I15
sg28
I79
sg23
I24
ssI15
(dp41
g21
I1
sg28
I13
sg23
I2
ssI16
(dp42
g28
I1
sss.