(dp0
S'AND'
p1
(dp2
I0
(dp3
cglitchresistor.emulator
Result
p4
(I1
tp5
Rp6
I1
ssI1
(dp7
g6
I15
sg4
(I7
tp8
Rp9
I1
ssI2
(dp10
g6
I106
sg9
I14
ssI3
(dp11
g6
I468
sg9
I92
ssI4
(dp12
g4
(I8
tp13
Rp14
I1
sg6
I1443
sg9
I376
ssI5
(dp15
g14
I12
sg6
I3290
sg9
I1066
ssI6
(dp16
g14
I66
sg6
I5730
sg9
I2212
ssI7
(dp17
g14
I220
sg6
I7767
sg9
I3453
ssI8
(dp18
g14
I495
sg6
I8271
sg9
I4104
ssI9
(dp19
g14
I792
sg6
I6931
sg9
I3717
ssI10
(dp20
g14
I924
sg6
I4542
sg9
I2542
ssI11
(dp21
g14
I792
sg6
I2290
sg9
I1286
ssI12
(dp22
g14
I495
sg6
I861
sg9
I464
ssI13
(dp23
g14
I220
sg6
I228
sg9
I112
ssI14
(dp24
g14
I66
sg6
I38
sg9
I16
ssI15
(dp25
g14
I12
sg6
I3
sg9
I1
ssI16
(dp26
g14
I1
sssS'input'
p27
(dp28
S'bytes_to_trash'
p29
(lp30
I2
aI3
asS'code'
p31
S'# config:{"bytes_to_trash": "2,3"}\nadds r0, r1, r2\nBPL .good\nmov r0, 0xdead\n.good:\nmov r1, 0xaaaa'
p32
sS'initial_code'
p33
(lp34
I136
aI24
aI1
aI213
aI77
aI246
aI173
aI96
aI74
aI246
aI170
aI33
asS'initial_bytes'
p35
(lp36
I1
aI213
asS'name'
p37
S'bpl.S'
p38
ssS'XOR'
p39
(dp40
I0
(dp41
g14
I1
ssI1
(dp42
g14
I3
sg6
I4
sg4
(I4
tp43
Rp44
I2
sg9
I7
ssI2
(dp45
g6
I37
sg4
(I2
tp46
Rp47
I2
sg4
(I3
tp48
Rp49
I1
sg44
I21
sg9
I54
sg14
I5
ssI3
(dp50
g6
I176
sg47
I31
sg49
I14
sg44
I105
sg9
I231
sg14
I3
ssI4
(dp51
g6
I562
sg47
I178
sg49
I81
sg44
I324
sg9
I671
sg14
I4
ssI5
(dp52
g6
I1404
sg47
I603
sg49
I265
sg44
I674
sg9
I1404
sg14
I18
ssI6
(dp53
g6
I2862
sg47
I1377
sg49
I562
sg44
I951
sg9
I2204
sg14
I52
ssI7
(dp54
g6
I4748
sg47
I2123
sg49
I822
sg44
I1005
sg9
I2624
sg14
I118
ssI8
(dp55
g6
I6219
sg47
I2459
sg49
I858
sg44
I742
sg4
(I6
tp56
Rp57
I2
sg9
I2405
sg14
I185
ssI9
(dp58
g6
I6428
sg47
I2054
sg49
I662
sg44
I405
sg57
I5
sg9
I1680
sg14
I206
ssI10
(dp59
g6
I5094
sg47
I1313
sg49
I384
sg44
I168
sg57
I9
sg9
I895
sg14
I145
ssI11
(dp60
g6
I3096
sg47
I632
sg49
I173
sg44
I43
sg57
I5
sg9
I348
sg14
I71
ssI12
(dp61
g6
I1413
sg47
I229
sg49
I55
sg44
I11
sg57
I1
sg9
I91
sg14
I20
ssI13
(dp62
g6
I468
sg47
I62
sg49
I11
sg44
I2
sg9
I15
sg14
I2
ssI14
(dp63
g6
I104
sg47
I11
sg49
I1
sg44
I2
sg9
I1
sg14
I1
ssI15
(dp64
g6
I15
sg47
I1
ssI16
(dp65
g6
I1
sssS'OR'
p66
(dp67
I0
(dp68
g14
I1
ssI1
(dp69
g14
I7
sg6
I1
sg44
I2
sg9
I6
ssI2
(dp70
g14
I21
sg6
I14
sg49
I1
sg44
I27
sg9
I57
ssI3
(dp71
g14
I35
sg6
I91
sg49
I14
sg44
I169
sg9
I251
ssI4
(dp72
g14
I35
sg6
I364
sg49
I91
sg44
I650
sg9
I680
ssI5
(dp73
g14
I21
sg6
I1001
sg49
I364
sg44
I1716
sg9
I1266
ssI6
(dp74
g14
I7
sg6
I2002
sg49
I1001
sg44
I3288
sg9
I1710
ssI7
(dp75
g14
I1
sg6
I3004
sg49
I2002
sg44
I4711
sg9
I1722
ssI8
(dp76
g6
I3439
sg49
I3003
sg44
I5120
sg9
I1308
ssI9
(dp77
g6
I3024
sg49
I3432
sg44
I4234
sg9
I750
ssI10
(dp78
g6
I2037
sg49
I3003
sg44
I2647
sg9
I321
ssI11
(dp79
g6
I1036
sg49
I2002
sg44
I1231
sg9
I99
ssI12
(dp80
g6
I385
sg49
I1001
sg44
I414
sg9
I20
ssI13
(dp81
g6
I98
sg49
I364
sg44
I96
sg9
I2
ssI14
(dp82
g6
I15
sg49
I91
sg44
I14
ssI15
(dp83
g6
I1
sg49
I14
sg44
I1
ssI16
(dp84
g49
I1
sss.