(dp0
S'AND'
p1
(dp2
I0
(dp3
cglitchresistor.emulator
Result
p4
(I1
tp5
Rp6
I1
ssI1
(dp7
g6
I15
sg4
(I7
tp8
Rp9
I1
ssI2
(dp10
g6
I106
sg9
I14
ssI3
(dp11
g6
I468
sg9
I92
ssI4
(dp12
g4
(I8
tp13
Rp14
I1
sg6
I1442
sg4
(I2
tp15
Rp16
I1
sg4
(I4
tp17
Rp18
I1
sg9
I375
ssI5
(dp19
g14
I12
sg6
I3281
sg16
I11
sg18
I10
sg9
I1054
ssI6
(dp20
g14
I66
sg6
I5693
sg16
I55
sg18
I45
sg9
I2149
ssI7
(dp21
g14
I220
sg6
I7674
sg16
I165
sg18
I120
sg9
I3261
ssI8
(dp22
g14
I495
sg6
I8109
sg16
I330
sg18
I210
sg9
I3726
ssI9
(dp23
g14
I792
sg6
I6721
sg16
I462
sg18
I252
sg9
I3213
ssI10
(dp24
g14
I924
sg6
I4332
sg16
I462
sg18
I210
sg9
I2080
ssI11
(dp25
g14
I792
sg6
I2128
sg16
I330
sg18
I120
sg9
I998
ssI12
(dp26
g14
I495
sg6
I768
sg16
I165
sg18
I45
sg9
I347
ssI13
(dp27
g14
I220
sg6
I191
sg16
I55
sg18
I10
sg9
I84
ssI14
(dp28
g14
I66
sg6
I29
sg16
I11
sg18
I1
sg9
I13
ssI15
(dp29
g14
I12
sg6
I2
sg16
I1
sg9
I1
ssI16
(dp30
g14
I1
sssS'input'
p31
(dp32
S'bytes_to_trash'
p33
(lp34
I2
aI3
asS'code'
p35
S'# config:{"bytes_to_trash": "2,3"}\nadds r0, r0, r0\nBVC .good\nmov r0, 0xdead\n.good:\nmov r1, 0xaaaa'
p36
sS'initial_code'
p37
(lp38
I0
aI24
aI1
aI215
aI77
aI246
aI173
aI96
aI74
aI246
aI170
aI33
asS'initial_bytes'
p39
(lp40
I1
aI215
asS'name'
p41
S'bvc.S'
p42
ss.