(dp0
S'AND'
p1
(dp2
I0
(dp3
cglitchresistor.emulator
Result
p4
(I1
tp5
Rp6
I1
ssI1
(dp7
g6
I15
sg4
(I7
tp8
Rp9
I1
ssI2
(dp10
g6
I106
sg9
I14
ssI3
(dp11
g6
I468
sg9
I92
ssI4
(dp12
g4
(I8
tp13
Rp14
I1
sg6
I1442
sg4
(I2
tp15
Rp16
I1
sg4
(I4
tp17
Rp18
I1
sg9
I375
ssI5
(dp19
g14
I12
sg6
I3281
sg16
I11
sg18
I10
sg9
I1054
ssI6
(dp20
g14
I66
sg6
I5693
sg16
I55
sg18
I45
sg9
I2149
ssI7
(dp21
g14
I220
sg6
I7674
sg16
I165
sg18
I120
sg9
I3261
ssI8
(dp22
g14
I495
sg6
I8109
sg16
I330
sg18
I210
sg9
I3726
ssI9
(dp23
g14
I792
sg6
I6721
sg16
I462
sg18
I252
sg9
I3213
ssI10
(dp24
g14
I924
sg6
I4332
sg16
I462
sg18
I210
sg9
I2080
ssI11
(dp25
g14
I792
sg6
I2128
sg16
I330
sg18
I120
sg9
I998
ssI12
(dp26
g14
I495
sg6
I768
sg16
I165
sg18
I45
sg9
I347
ssI13
(dp27
g14
I220
sg6
I191
sg16
I55
sg18
I10
sg9
I84
ssI14
(dp28
g14
I66
sg6
I29
sg16
I11
sg18
I1
sg9
I13
ssI15
(dp29
g14
I12
sg6
I2
sg16
I1
sg9
I1
ssI16
(dp30
g14
I1
sssS'input'
p31
(dp32
S'bytes_to_trash'
p33
(lp34
I2
aI3
asS'code'
p35
S'# config:{"bytes_to_trash": "2,3"}\nadds r0, r0, r0\nBVC .good\nmov r0, 0xdead\n.good:\nmov r1, 0xaaaa'
p36
sS'initial_code'
p37
(lp38
I0
aI24
aI1
aI215
aI77
aI246
aI173
aI96
aI74
aI246
aI170
aI33
asS'initial_bytes'
p39
(lp40
I1
aI215
asS'name'
p41
S'bvc.S'
p42
ssS'XOR'
p43
(dp44
I0
(dp45
g14
I1
ssI1
(dp46
g14
I3
sg6
I3
sg16
I1
sg18
I2
sg9
I7
ssI2
(dp47
g6
I30
sg16
I11
sg4
(I3
tp48
Rp49
I3
sg18
I22
sg9
I51
sg14
I3
ssI3
(dp50
g6
I147
sg16
I61
sg49
I28
sg18
I109
sg9
I210
sg14
I5
ssI4
(dp51
g6
I508
sg16
I237
sg49
I120
sg18
I325
sg9
I618
sg14
I12
ssI5
(dp52
g6
I1347
sg16
I651
sg49
I320
sg18
I659
sg9
I1353
sg14
I38
ssI6
(dp53
g6
I2849
sg16
I1323
sg49
I586
sg18
I961
sg9
I2194
sg14
I95
ssI7
(dp54
g6
I4777
sg16
I2037
sg49
I788
sg18
I1000
sg4
(I6
tp55
Rp56
I2
sg9
I2675
sg14
I161
ssI8
(dp57
g6
I6311
sg16
I2319
sg49
I795
sg18
I776
sg56
I5
sg9
I2464
sg14
I200
ssI9
(dp58
g6
I6456
sg16
I2071
sg49
I625
sg18
I394
sg56
I9
sg9
I1714
sg14
I171
ssI10
(dp59
g6
I5123
sg16
I1363
sg49
I379
sg18
I143
sg56
I5
sg9
I891
sg14
I104
ssI11
(dp60
g6
I3072
sg16
I691
sg49
I182
sg18
I46
sg56
I1
sg9
I345
sg14
I31
ssI12
(dp61
g6
I1397
sg16
I253
sg49
I63
sg18
I12
sg9
I90
sg14
I5
ssI13
(dp62
g6
I463
sg16
I68
sg49
I12
sg18
I3
sg9
I14
ssI14
(dp63
g6
I105
sg16
I12
sg49
I1
sg18
I1
sg9
I1
ssI15
(dp64
g6
I15
sg16
I1
ssI16
(dp65
g6
I1
sssS'OR'
p66
(dp67
I0
(dp68
g14
I1
ssI1
(dp69
g14
I7
sg6
I1
sg18
I2
sg9
I6
ssI2
(dp70
g14
I21
sg6
I14
sg49
I1
sg18
I27
sg9
I57
ssI3
(dp71
g14
I35
sg6
I91
sg49
I14
sg18
I169
sg9
I251
ssI4
(dp72
g14
I35
sg6
I364
sg49
I91
sg18
I650
sg9
I680
ssI5
(dp73
g14
I21
sg6
I1001
sg49
I364
sg18
I1716
sg9
I1266
ssI6
(dp74
g14
I7
sg6
I2003
sg49
I1001
sg18
I3288
sg9
I1709
ssI7
(dp75
g14
I1
sg6
I3011
sg49
I2002
sg18
I4711
sg9
I1715
ssI8
(dp76
g6
I3460
sg49
I3003
sg18
I5120
sg9
I1287
ssI9
(dp77
g6
I3059
sg49
I3432
sg18
I4234
sg9
I715
ssI10
(dp78
g6
I2072
sg49
I3003
sg18
I2647
sg9
I286
ssI11
(dp79
g6
I1057
sg49
I2002
sg18
I1231
sg9
I78
ssI12
(dp80
g6
I392
sg49
I1001
sg18
I414
sg9
I13
ssI13
(dp81
g6
I99
sg49
I364
sg18
I96
sg9
I1
ssI14
(dp82
g6
I15
sg49
I91
sg18
I14
ssI15
(dp83
g6
I1
sg49
I14
sg18
I1
ssI16
(dp84
g49
I1
sss.