(dp0
S'AND'
p1
(dp2
I0
(dp3
cglitchresistor.emulator
Result
p4
(I1
tp5
Rp6
I1
ssI1
(dp7
g6
I15
sg4
(I7
tp8
Rp9
I1
ssI2
(dp10
g6
I106
sg9
I14
ssI3
(dp11
g6
I468
sg9
I92
ssI4
(dp12
g4
(I8
tp13
Rp14
I1
sg6
I1443
sg4
(I2
tp15
Rp16
I1
sg9
I375
ssI5
(dp17
g14
I12
sg6
I3290
sg16
I11
sg9
I1055
ssI6
(dp18
g14
I66
sg6
I5730
sg16
I55
sg9
I2157
ssI7
(dp19
g14
I220
sg6
I7767
sg16
I165
sg9
I3288
ssI8
(dp20
g14
I495
sg6
I8271
sg16
I330
sg9
I3774
ssI9
(dp21
g14
I792
sg6
I6931
sg16
I462
sg9
I3255
ssI10
(dp22
g14
I924
sg6
I4542
sg16
I462
sg9
I2080
ssI11
(dp23
g14
I792
sg6
I2290
sg16
I330
sg9
I956
ssI12
(dp24
g14
I495
sg6
I861
sg16
I165
sg9
I299
ssI13
(dp25
g14
I220
sg6
I228
sg16
I55
sg9
I57
ssI14
(dp26
g14
I66
sg6
I38
sg16
I11
sg9
I5
ssI15
(dp27
g14
I12
sg6
I3
sg16
I1
ssI16
(dp28
g14
I1
sssS'input'
p29
(dp30
S'bytes_to_trash'
p31
(lp32
I2
aI3
asS'code'
p33
S'# config:{"bytes_to_trash": "2,3"}\nadds r0, r7, r7\nBVS .good\nmov r0, 0xdead\n.good:\nmov r1, 0xaaaa'
p34
sS'initial_code'
p35
(lp36
I248
aI25
aI1
aI214
aI77
aI246
aI173
aI96
aI74
aI246
aI170
aI33
asS'initial_bytes'
p37
(lp38
I1
aI214
asS'name'
p39
S'bvs.S'
p40
ss.