(dp0
S'AND'
p1
(dp2
I0
(dp3
cglitchresistor.emulator
Result
p4
(I1
tp5
Rp6
I1
ssI1
(dp7
g6
I15
sg4
(I7
tp8
Rp9
I1
ssI2
(dp10
g6
I106
sg9
I14
ssI3
(dp11
g6
I468
sg9
I92
ssI4
(dp12
g4
(I8
tp13
Rp14
I1
sg6
I1443
sg4
(I2
tp15
Rp16
I1
sg9
I375
ssI5
(dp17
g14
I12
sg6
I3290
sg16
I11
sg9
I1055
ssI6
(dp18
g14
I66
sg6
I5730
sg16
I55
sg9
I2157
ssI7
(dp19
g14
I220
sg6
I7767
sg16
I165
sg9
I3288
ssI8
(dp20
g14
I495
sg6
I8271
sg16
I330
sg9
I3774
ssI9
(dp21
g14
I792
sg6
I6931
sg16
I462
sg9
I3255
ssI10
(dp22
g14
I924
sg6
I4542
sg16
I462
sg9
I2080
ssI11
(dp23
g14
I792
sg6
I2290
sg16
I330
sg9
I956
ssI12
(dp24
g14
I495
sg6
I861
sg16
I165
sg9
I299
ssI13
(dp25
g14
I220
sg6
I228
sg16
I55
sg9
I57
ssI14
(dp26
g14
I66
sg6
I38
sg16
I11
sg9
I5
ssI15
(dp27
g14
I12
sg6
I3
sg16
I1
ssI16
(dp28
g14
I1
sssS'input'
p29
(dp30
S'bytes_to_trash'
p31
(lp32
I2
aI3
asS'code'
p33
S'# config:{"bytes_to_trash": "2,3"}\nadds r0, r7, r7\nBVS .good\nmov r0, 0xdead\n.good:\nmov r1, 0xaaaa'
p34
sS'initial_code'
p35
(lp36
I248
aI25
aI1
aI214
aI77
aI246
aI173
aI96
aI74
aI246
aI170
aI33
asS'initial_bytes'
p37
(lp38
I1
aI214
asS'name'
p39
S'bvs.S'
p40
ssS'XOR'
p41
(dp42
I0
(dp43
g14
I1
ssI1
(dp44
g6
I4
sg16
I1
sg4
(I3
tp45
Rp46
I1
sg4
(I4
tp47
Rp48
I2
sg9
I6
sg14
I2
ssI2
(dp49
g6
I36
sg16
I10
sg46
I10
sg48
I20
sg9
I40
sg14
I4
ssI3
(dp50
g6
I171
sg16
I54
sg46
I48
sg48
I97
sg9
I186
sg14
I4
ssI4
(dp51
g6
I556
sg16
I210
sg46
I151
sg48
I296
sg9
I601
sg14
I6
ssI5
(dp52
g6
I1424
sg16
I612
sg46
I340
sg48
I621
sg9
I1345
sg14
I26
ssI6
(dp53
g6
I2944
sg16
I1289
sg46
I586
sg48
I926
sg9
I2179
sg14
I84
ssI7
(dp54
g6
I4849
sg16
I1992
sg46
I783
sg48
I1010
sg9
I2636
sg14
I170
ssI8
(dp55
g6
I6310
sg16
I2345
sg46
I813
sg48
I783
sg4
(I6
tp56
Rp57
I2
sg9
I2401
sg14
I216
ssI9
(dp58
g6
I6465
sg16
I2029
sg46
I619
sg48
I455
sg57
I5
sg9
I1679
sg14
I188
ssI10
(dp59
g6
I5078
sg16
I1378
sg46
I359
sg48
I167
sg57
I9
sg9
I924
sg14
I93
ssI11
(dp60
g6
I3066
sg16
I686
sg46
I140
sg48
I47
sg57
I5
sg9
I393
sg14
I31
ssI12
(dp61
g6
I1380
sg16
I256
sg46
I40
sg48
I17
sg57
I1
sg9
I120
sg14
I6
ssI13
(dp62
g6
I462
sg16
I68
sg46
I5
sg48
I3
sg9
I22
ssI14
(dp63
g6
I104
sg16
I13
sg48
I1
sg9
I2
ssI15
(dp64
g6
I15
sg16
I1
ssI16
(dp65
g6
I1
sssS'OR'
p66
(dp67
I0
(dp68
g14
I1
ssI1
(dp69
g14
I6
sg6
I1
sg46
I1
sg48
I2
sg9
I6
ssI2
(dp70
g14
I15
sg6
I14
sg46
I14
sg48
I26
sg9
I51
ssI3
(dp71
g14
I20
sg6
I91
sg46
I92
sg48
I157
sg9
I200
ssI4
(dp72
g14
I15
sg6
I364
sg46
I377
sg48
I584
sg9
I480
ssI5
(dp73
g14
I6
sg6
I1001
sg46
I1079
sg48
I1496
sg9
I786
ssI6
(dp74
g14
I1
sg6
I2002
sg46
I2288
sg48
I2793
sg9
I924
ssI7
(dp75
g6
I3004
sg46
I3718
sg48
I3920
sg9
I798
ssI8
(dp76
g6
I3438
sg46
I4719
sg48
I4203
sg9
I510
ssI9
(dp77
g6
I3018
sg46
I4719
sg48
I3463
sg9
I240
ssI10
(dp78
g6
I2022
sg46
I3718
sg48
I2187
sg9
I81
ssI11
(dp79
g6
I1016
sg46
I2288
sg48
I1046
sg9
I18
ssI12
(dp80
g6
I370
sg46
I1079
sg48
I369
sg9
I2
ssI13
(dp81
g6
I92
sg46
I377
sg48
I91
ssI14
(dp82
g6
I14
sg46
I92
sg48
I14
ssI15
(dp83
g6
I1
sg46
I14
sg48
I1
ssI16
(dp84
g46
I1
sss.