(dp0
S'AND'
p1
(dp2
I0
(dp3
cglitchresistor.emulator
Result
p4
(I3
tp5
Rp6
I1
ssI1
(dp7
g4
(I1
tp8
Rp9
I6
sg6
I10
ssI2
(dp10
g9
I74
sg6
I45
sg4
(I7
tp11
Rp12
I1
ssI3
(dp13
g9
I427
sg6
I120
sg12
I13
ssI4
(dp14
g4
(I8
tp15
Rp16
I1
sg9
I1529
sg6
I210
sg12
I80
ssI5
(dp17
g16
I12
sg9
I3797
sg6
I252
sg12
I307
ssI6
(dp18
g16
I66
sg9
I6917
sg6
I210
sg12
I815
ssI7
(dp19
g16
I220
sg9
I9528
sg6
I120
sg12
I1572
ssI8
(dp20
g16
I495
sg9
I10074
sg6
I45
sg12
I2256
ssI9
(dp21
g16
I792
sg9
I8208
sg6
I10
sg12
I2430
ssI10
(dp22
g16
I924
sg9
I5124
sg6
I1
sg12
I1959
ssI11
(dp23
g16
I792
sg9
I2411
sg12
I1165
ssI12
(dp24
g16
I495
sg9
I829
sg12
I496
ssI13
(dp25
g16
I220
sg9
I197
sg12
I143
ssI14
(dp26
g16
I66
sg9
I29
sg12
I25
ssI15
(dp27
g16
I12
sg9
I2
sg12
I2
ssI16
(dp28
g16
I1
sssS'input'
p29
(dp30
S'bytes_to_trash'
p31
(lp32
I2
aI3
asS'code'
p33
S'# config:{"bytes_to_trash": "2,3"}\ncmp r0, r1\nbcc .good\nmov r0, 0xdead\n.good:\nmov r1, 0xaaaa'
p34
sS'initial_code'
p35
(lp36
I136
aI66
aI1
aI211
aI77
aI246
aI173
aI96
aI74
aI246
aI170
aI33
asS'initial_bytes'
p37
(lp38
I1
aI211
asS'name'
p39
S'bcc.S'
p40
ss.