(dp0
S'input'
p1
(dp2
S'bytes_to_trash'
p3
(lp4
I2
aI3
asS'code'
p5
S'# config:{"bytes_to_trash": "2,3"}\ncmp r7, r5\nbcs .good\nmov r0, 0xdead\n.good:\nmov r1, 0xaaaa'
p6
sS'initial_code'
p7
(lp8
I175
aI66
aI1
aI210
aI77
aI246
aI173
aI96
aI74
aI246
aI170
aI33
asS'initial_bytes'
p9
(lp10
I1
aI210
asS'name'
p11
S'bcs.S'
p12
ssS'OR'
p13
(dp14
I0
(dp15
cglitchresistor.emulator
Result
p16
(I8
tp17
Rp18
I1
ssI1
(dp19
g18
I6
sg16
(I1
tp20
Rp21
I2
sg16
(I4
tp22
Rp23
I2
sg16
(I7
tp24
Rp25
I6
ssI2
(dp26
g18
I16
sg21
I25
sg16
(I3
tp27
Rp28
I2
sg23
I26
sg25
I51
ssI3
(dp29
g18
I27
sg21
I145
sg28
I24
sg23
I158
sg25
I206
ssI4
(dp30
g18
I47
sg21
I518
sg28
I134
sg23
I596
sg25
I525
ssI5
(dp31
g18
I126
sg21
I1276
sg28
I464
sg23
I1561
sg25
I941
ssI6
(dp32
g18
I336
sg21
I2299
sg28
I1120
sg23
I3004
sg25
I1249
ssI7
(dp33
g18
I661
sg21
I3136
sg28
I2005
sg23
I4379
sg25
I1259
ssI8
(dp34
g18
I924
sg21
I3306
sg28
I2757
sg23
I4910
sg25
I973
ssI9
(dp35
g18
I924
sg21
I2722
sg28
I2964
sg23
I4255
sg25
I575
ssI10
(dp36
g18
I660
sg21
I1752
sg28
I2502
sg23
I2838
sg25
I256
ssI11
(dp37
g18
I330
sg21
I872
sg28
I1646
sg23
I1437
sg25
I83
ssI12
(dp38
g18
I110
sg21
I326
sg28
I828
sg23
I538
sg25
I18
ssI13
(dp39
g18
I22
sg21
I86
sg28
I308
sg23
I142
sg25
I2
ssI14
(dp40
g18
I2
sg21
I14
sg28
I80
sg23
I24
ssI15
(dp41
g21
I1
sg28
I13
sg23
I2
ssI16
(dp42
g28
I1
sss.