(dp0
S'AND'
p1
(dp2
I0
(dp3
cglitchresistor.emulator
Result
p4
(I3
tp5
Rp6
I1
ssI1
(dp7
g4
(I1
tp8
Rp9
I4
sg6
I12
ssI2
(dp10
g9
I53
sg6
I66
sg4
(I7
tp11
Rp12
I1
ssI3
(dp13
g4
(I8
tp14
Rp15
I1
sg9
I326
sg6
I220
sg12
I13
ssI4
(dp16
g15
I13
sg9
I1234
sg6
I495
sg12
I78
ssI5
(dp17
g15
I78
sg9
I3212
sg6
I792
sg12
I286
ssI6
(dp18
g15
I286
sg9
I6083
sg6
I924
sg12
I715
ssI7
(dp19
g15
I715
sg9
I8646
sg6
I792
sg12
I1287
ssI8
(dp20
g15
I1287
sg9
I9372
sg6
I495
sg12
I1716
ssI9
(dp21
g15
I1716
sg9
I7788
sg6
I220
sg12
I1716
ssI10
(dp22
g15
I1716
sg9
I4939
sg6
I66
sg12
I1287
ssI11
(dp23
g15
I1287
sg9
I2354
sg6
I12
sg12
I715
ssI12
(dp24
g15
I715
sg9
I818
sg6
I1
sg12
I286
ssI13
(dp25
g15
I286
sg9
I196
sg12
I78
ssI14
(dp26
g15
I78
sg9
I29
sg12
I13
ssI15
(dp27
g15
I13
sg9
I2
sg12
I1
ssI16
(dp28
g15
I1
sssS'input'
p29
(dp30
S'bytes_to_trash'
p31
(lp32
I2
aI3
asS'code'
p33
S'# config:{"bytes_to_trash": "2,3"}\ncmp r0, r5\nbeq .good\nmov r0, 0xdead\n.good:\nmov r1, 0xaaaa'
p34
sS'initial_code'
p35
(lp36
I168
aI66
aI1
aI208
aI77
aI246
aI173
aI96
aI74
aI246
aI170
aI33
asS'initial_bytes'
p37
(lp38
I1
aI208
asS'name'
p39
S'beq.S'
p40
ss.