(dp0
S'input'
p1
(dp2
S'bytes_to_trash'
p3
(lp4
I2
aI3
asS'code'
p5
S'# config:{"bytes_to_trash": "2,3"}\ncmp r0, r5\nbeq .good\nmov r0, 0xdead\n.good:\nmov r1, 0xaaaa'
p6
sS'initial_code'
p7
(lp8
I168
aI66
aI1
aI208
aI77
aI246
aI173
aI96
aI74
aI246
aI170
aI33
asS'initial_bytes'
p9
(lp10
I1
aI208
asS'name'
p11
S'beq.S'
p12
ssS'OR'
p13
(dp14
I0
(dp15
cglitchresistor.emulator
Result
p16
(I8
tp17
Rp18
I1
ssI1
(dp19
g18
I5
sg16
(I1
tp20
Rp21
I3
sg16
(I4
tp22
Rp23
I2
sg16
(I7
tp24
Rp25
I6
ssI2
(dp26
g18
I13
sg21
I36
sg16
(I3
tp27
Rp28
I1
sg23
I25
sg25
I45
ssI3
(dp29
g18
I24
sg21
I199
sg28
I15
sg23
I149
sg25
I173
ssI4
(dp30
g18
I34
sg21
I672
sg28
I99
sg23
I561
sg25
I454
ssI5
(dp31
g21
I1551
sg16
(I2
tp32
Rp33
I1
sg28
I388
sg23
I1487
sg25
I887
sg18
I54
ssI6
(dp34
g21
I2596
sg33
I6
sg28
I1023
sg23
I2923
sg25
I1322
sg18
I138
ssI7
(dp35
g21
I3268
sg33
I18
sg28
I1943
sg23
I4370
sg25
I1509
sg18
I332
ssI8
(dp36
g21
I3173
sg33
I32
sg28
I2773
sg23
I5019
sg25
I1312
sg18
I561
ssI9
(dp37
g21
I2422
sg33
I33
sg28
I3049
sg23
I4427
sg25
I859
sg18
I650
ssI10
(dp38
g21
I1476
sg33
I18
sg28
I2607
sg23
I2971
sg25
I417
sg18
I519
ssI11
(dp39
g21
I724
sg33
I4
sg28
I1723
sg23
I1489
sg25
I146
sg18
I282
ssI12
(dp40
g18
I100
sg21
I281
sg28
I863
sg23
I542
sg25
I34
ssI13
(dp41
g18
I21
sg21
I80
sg28
I317
sg23
I138
sg25
I4
ssI14
(dp42
g18
I2
sg21
I14
sg28
I81
sg23
I23
ssI15
(dp43
g21
I1
sg28
I13
sg23
I2
ssI16
(dp44
g28
I1
sss.