(dp0
S'AND'
p1
(dp2
I0
(dp3
cglitchresistor.emulator
Result
p4
(I3
tp5
Rp6
I1
ssI1
(dp7
g4
(I1
tp8
Rp9
I6
sg6
I10
ssI2
(dp10
g9
I74
sg6
I45
sg4
(I7
tp11
Rp12
I1
ssI3
(dp13
g4
(I8
tp14
Rp15
I1
sg9
I426
sg4
(I2
tp16
Rp17
I1
sg6
I120
sg12
I12
ssI4
(dp18
g15
I12
sg9
I1519
sg17
I12
sg6
I210
sg12
I67
ssI5
(dp19
g15
I67
sg9
I3752
sg17
I67
sg6
I252
sg12
I230
ssI6
(dp20
g15
I231
sg9
I6797
sg17
I230
sg6
I210
sg12
I540
ssI7
(dp21
g15
I550
sg9
I9318
sg17
I540
sg6
I120
sg12
I912
ssI8
(dp22
g15
I957
sg9
I9822
sg17
I912
sg6
I45
sg12
I1134
ssI9
(dp23
g15
I1254
sg9
I7998
sg17
I1134
sg6
I10
sg12
I1044
ssI10
(dp24
g15
I1254
sg9
I5004
sg17
I1044
sg6
I1
sg12
I705
ssI11
(dp25
g15
I957
sg9
I2366
sg17
I705
sg12
I340
ssI12
(dp26
g15
I550
sg9
I819
sg17
I340
sg12
I111
ssI13
(dp27
g15
I231
sg9
I196
sg17
I111
sg12
I22
ssI14
(dp28
g15
I67
sg9
I29
sg17
I22
sg12
I2
ssI15
(dp29
g15
I12
sg9
I2
sg17
I2
ssI16
(dp30
g15
I1
sssS'input'
p31
(dp32
S'bytes_to_trash'
p33
(lp34
I2
aI3
asS'code'
p35
S'# config:{"bytes_to_trash": "2,3"}\ncmp r0, r5\nbge .good\nmov r0, 0xdead\n.good:\nmov r1, 0xaaaa'
p36
sS'initial_code'
p37
(lp38
I168
aI66
aI1
aI218
aI77
aI246
aI173
aI96
aI74
aI246
aI170
aI33
asS'initial_bytes'
p39
(lp40
I1
aI218
asS'name'
p41
S'bge.S'
p42
ss.