(dp0
S'input'
p1
(dp2
S'bytes_to_trash'
p3
(lp4
I2
aI3
asS'code'
p5
S'# config:{"bytes_to_trash": "2,3"}\ncmp r1, r0\nbgt .good\nmov r0, 0xdead\n.good:\nmov r1, 0xaaaa'
p6
sS'initial_code'
p7
(lp8
I129
aI66
aI1
aI220
aI77
aI246
aI173
aI96
aI74
aI246
aI170
aI33
asS'initial_bytes'
p9
(lp10
I1
aI220
asS'name'
p11
S'bgt.S'
p12
ssS'OR'
p13
(dp14
I0
(dp15
cglitchresistor.emulator
Result
p16
(I8
tp17
Rp18
I1
ssI1
(dp19
g18
I6
sg16
(I1
tp20
Rp21
I1
sg16
(I3
tp22
Rp23
I2
sg16
(I4
tp24
Rp25
I1
sg16
(I7
tp26
Rp27
I6
ssI2
(dp28
g18
I15
sg21
I14
sg23
I28
sg25
I12
sg27
I51
ssI3
(dp29
g18
I20
sg21
I91
sg23
I183
sg25
I66
sg27
I200
ssI4
(dp30
g18
I15
sg21
I364
sg23
I741
sg25
I220
sg27
I480
ssI5
(dp31
g18
I6
sg21
I1001
sg23
I2080
sg25
I495
sg27
I786
ssI6
(dp32
g18
I1
sg21
I2002
sg23
I4290
sg25
I791
sg27
I924
ssI7
(dp33
g21
I3004
sg23
I6721
sg25
I917
sg27
I798
ssI8
(dp34
g21
I3438
sg23
I8151
sg25
I771
sg27
I510
ssI9
(dp35
g21
I3018
sg23
I7722
sg25
I460
sg27
I240
ssI10
(dp36
g21
I2022
sg23
I5720
sg25
I185
sg27
I81
ssI11
(dp37
g21
I1016
sg23
I3289
sg25
I45
sg27
I18
ssI12
(dp38
g21
I370
sg23
I1443
sg25
I5
sg27
I2
ssI13
(dp39
g21
I92
sg23
I468
ssI14
(dp40
g21
I14
sg23
I106
ssI15
(dp41
g21
I1
sg23
I15
ssI16
(dp42
g23
I1
sss.