(dp0
S'AND'
p1
(dp2
I0
(dp3
cglitchresistor.emulator
Result
p4
(I3
tp5
Rp6
I1
ssI1
(dp7
g4
(I1
tp8
Rp9
I5
sg6
I11
ssI2
(dp10
g9
I64
sg6
I55
sg4
(I7
tp11
Rp12
I1
ssI3
(dp13
g9
I382
sg4
(I2
tp14
Rp15
I1
sg6
I165
sg12
I12
ssI4
(dp16
g4
(I8
tp17
Rp18
I1
sg9
I1411
sg15
I12
sg6
I330
sg12
I66
ssI5
(dp19
g18
I12
sg9
I3608
sg15
I66
sg6
I462
sg12
I220
ssI6
(dp20
g18
I66
sg9
I6765
sg15
I220
sg6
I462
sg12
I495
ssI7
(dp21
g18
I220
sg9
I9603
sg15
I495
sg6
I330
sg12
I792
ssI8
(dp22
g18
I495
sg9
I10494
sg15
I792
sg6
I165
sg12
I924
ssI9
(dp23
g18
I792
sg9
I8877
sg15
I924
sg6
I55
sg12
I792
ssI10
(dp24
g18
I924
sg9
I5786
sg15
I792
sg6
I11
sg12
I495
ssI11
(dp25
g18
I792
sg9
I2860
sg15
I495
sg6
I1
sg12
I220
ssI12
(dp26
g18
I495
sg9
I1039
sg15
I220
sg12
I66
ssI13
(dp27
g18
I220
sg9
I262
sg15
I66
sg12
I12
ssI14
(dp28
g18
I66
sg9
I41
sg15
I12
sg12
I1
ssI15
(dp29
g18
I12
sg9
I3
sg15
I1
ssI16
(dp30
g18
I1
sssS'input'
p31
(dp32
S'bytes_to_trash'
p33
(lp34
I2
aI3
asS'code'
p35
S'# config:{"bytes_to_trash": "2,3"}\ncmp r1, r0\nbhi .good\nmov r0, 0xdead\n.good:\nmov r1, 0xaaaa'
p36
sS'initial_code'
p37
(lp38
I129
aI66
aI1
aI216
aI77
aI246
aI173
aI96
aI74
aI246
aI170
aI33
asS'initial_bytes'
p39
(lp40
I1
aI216
asS'name'
p41
S'bhi.S'
p42
ss.