(dp0
S'input'
p1
(dp2
S'bytes_to_trash'
p3
(lp4
I2
aI3
asS'code'
p5
S'# config:{"bytes_to_trash": "2,3"}\ncmp r1, r0\nbhi .good\nmov r0, 0xdead\n.good:\nmov r1, 0xaaaa'
p6
sS'initial_code'
p7
(lp8
I129
aI66
aI1
aI216
aI77
aI246
aI173
aI96
aI74
aI246
aI170
aI33
asS'initial_bytes'
p9
(lp10
I1
aI216
asS'name'
p11
S'bhi.S'
p12
ssS'OR'
p13
(dp14
I0
(dp15
cglitchresistor.emulator
Result
p16
(I8
tp17
Rp18
I1
ssI1
(dp19
g18
I7
sg16
(I1
tp20
Rp21
I1
sg16
(I3
tp22
Rp23
I1
sg16
(I4
tp24
Rp25
I1
sg16
(I7
tp26
Rp27
I6
ssI2
(dp28
g18
I20
sg21
I14
sg23
I16
sg25
I13
sg27
I57
ssI3
(dp29
g18
I33
sg21
I91
sg23
I114
sg25
I77
sg27
I245
ssI4
(dp30
g21
I364
sg16
(I2
tp31
Rp32
I1
sg23
I487
sg25
I276
sg27
I635
sg18
I57
ssI5
(dp33
g21
I1001
sg32
I7
sg23
I1411
sg25
I671
sg27
I1111
sg18
I167
ssI6
(dp34
g21
I2002
sg32
I24
sg23
I2966
sg25
I1172
sg27
I1385
sg18
I459
ssI7
(dp35
g21
I3004
sg32
I50
sg23
I4716
sg25
I1518
sg27
I1261
sg18
I891
ssI8
(dp36
g21
I3439
sg32
I65
sg23
I5822
sg25
I1488
sg27
I845
sg18
I1211
ssI9
(dp37
g21
I3023
sg32
I51
sg23
I5656
sg25
I1126
sg27
I415
sg18
I1169
ssI10
(dp38
g21
I2032
sg32
I22
sg23
I4330
sg25
I677
sg27
I146
sg18
I801
ssI11
(dp39
g21
I1026
sg32
I4
sg23
I2586
sg25
I336
sg27
I34
sg18
I382
ssI12
(dp40
g18
I121
sg21
I375
sg23
I1180
sg25
I140
sg27
I4
ssI13
(dp41
g18
I23
sg21
I93
sg23
I398
sg25
I46
ssI14
(dp42
g18
I2
sg21
I14
sg23
I94
sg25
I10
ssI15
(dp43
g21
I1
sg23
I14
sg25
I1
ssI16
(dp44
g23
I1
sss.