(dp0
S'input'
p1
(dp2
S'bytes_to_trash'
p3
(lp4
I2
aI3
asS'code'
p5
S'# config:{"bytes_to_trash": "2,3"}\ncmp r0, r1\nble .good\nmov r0, 0xdead\n.good:\nmov r1, 0xaaaa'
p6
sS'initial_code'
p7
(lp8
I136
aI66
aI1
aI221
aI77
aI246
aI173
aI96
aI74
aI246
aI170
aI33
asS'initial_bytes'
p9
(lp10
I1
aI221
asS'name'
p11
S'ble.S'
p12
ssS'OR'
p13
(dp14
I0
(dp15
cglitchresistor.emulator
Result
p16
(I8
tp17
Rp18
I1
ssI1
(dp19
g18
I7
sg16
(I1
tp20
Rp21
I1
sg16
(I3
tp22
Rp23
I1
sg16
(I4
tp24
Rp25
I1
sg16
(I7
tp26
Rp27
I6
ssI2
(dp28
g18
I21
sg21
I14
sg23
I15
sg25
I13
sg27
I57
ssI3
(dp29
g18
I35
sg21
I91
sg23
I105
sg25
I78
sg27
I251
ssI4
(dp30
g18
I35
sg21
I364
sg23
I455
sg25
I286
sg27
I680
ssI5
(dp31
g18
I21
sg21
I1001
sg23
I1365
sg25
I715
sg27
I1266
ssI6
(dp32
g18
I7
sg21
I2002
sg23
I3003
sg25
I1286
sg27
I1710
ssI7
(dp33
g18
I1
sg21
I3004
sg23
I5005
sg25
I1708
sg27
I1722
ssI8
(dp34
g21
I3439
sg23
I6435
sg25
I1688
sg27
I1308
ssI9
(dp35
g21
I3024
sg23
I6435
sg25
I1231
sg27
I750
ssI10
(dp36
g21
I2037
sg23
I5005
sg25
I645
sg27
I321
ssI11
(dp37
g21
I1036
sg23
I3003
sg25
I230
sg27
I99
ssI12
(dp38
g21
I385
sg23
I1365
sg25
I50
sg27
I20
ssI13
(dp39
g21
I98
sg23
I455
sg25
I5
sg27
I2
ssI14
(dp40
g21
I15
sg23
I105
ssI15
(dp41
g21
I1
sg23
I15
ssI16
(dp42
g23
I1
sss.