(dp0
S'AND'
p1
(dp2
I0
(dp3
cglitchresistor.emulator
Result
p4
(I3
tp5
Rp6
I1
ssI1
(dp7
g4
(I1
tp8
Rp9
I7
sg6
I9
ssI2
(dp10
g9
I83
sg6
I36
sg4
(I7
tp11
Rp12
I1
ssI3
(dp13
g9
I463
sg4
(I2
tp14
Rp15
I1
sg6
I84
sg12
I12
ssI4
(dp16
g4
(I8
tp17
Rp18
I2
sg9
I1612
sg15
I12
sg6
I126
sg12
I68
ssI5
(dp19
g18
I21
sg9
I3915
sg15
I68
sg6
I126
sg12
I238
ssI6
(dp20
g18
I101
sg9
I7018
sg15
I238
sg6
I84
sg12
I567
ssI7
(dp21
g18
I295
sg9
I9582
sg15
I567
sg6
I36
sg12
I960
ssI8
(dp22
g18
I585
sg9
I10140
sg15
I960
sg6
I9
sg12
I1176
ssI9
(dp23
g18
I834
sg9
I8385
sg15
I1176
sg6
I1
sg12
I1044
ssI10
(dp24
g18
I882
sg9
I5419
sg15
I1044
sg12
I663
ssI11
(dp25
g18
I702
sg9
I2711
sg15
I663
sg12
I292
ssI12
(dp26
g18
I420
sg9
I1024
sg15
I292
sg12
I84
ssI13
(dp27
g18
I185
sg9
I277
sg15
I84
sg12
I14
ssI14
(dp28
g18
I57
sg9
I48
sg15
I14
sg12
I1
ssI15
(dp29
g18
I11
sg9
I4
sg15
I1
ssI16
(dp30
g18
I1
sssS'input'
p31
(dp32
S'bytes_to_trash'
p33
(lp34
I2
aI3
asS'code'
p35
S'# config:{"bytes_to_trash": "2,3"}\ncmp r0, r1\nble .good\nmov r0, 0xdead\n.good:\nmov r1, 0xaaaa'
p36
sS'initial_code'
p37
(lp38
I136
aI66
aI1
aI221
aI77
aI246
aI173
aI96
aI74
aI246
aI170
aI33
asS'initial_bytes'
p39
(lp40
I1
aI221
asS'name'
p41
S'ble.S'
p42
ss.