(dp0
S'input'
p1
(dp2
S'bytes_to_trash'
p3
(lp4
I2
aI3
asS'code'
p5
S'# config:{"bytes_to_trash": "2,3"}\ncmp r0, r1\nblt .good\nmov r0, 0xdead\n.good:\nmov r1, 0xaaaa'
p6
sS'initial_code'
p7
(lp8
I136
aI66
aI1
aI219
aI77
aI246
aI173
aI96
aI74
aI246
aI170
aI33
asS'initial_bytes'
p9
(lp10
I1
aI219
asS'name'
p11
S'blt.S'
p12
ssS'OR'
p13
(dp14
I0
(dp15
cglitchresistor.emulator
Result
p16
(I8
tp17
Rp18
I1
ssI1
(dp19
g18
I8
sg16
(I1
tp20
Rp21
I1
sg16
(I4
tp22
Rp23
I1
sg16
(I7
tp24
Rp25
I6
ssI2
(dp26
g18
I34
sg21
I14
sg16
(I3
tp27
Rp28
I1
sg23
I14
sg25
I57
ssI3
(dp29
g18
I114
sg21
I91
sg28
I14
sg23
I90
sg25
I251
ssI4
(dp30
g18
I332
sg21
I364
sg28
I91
sg23
I353
sg25
I680
ssI5
(dp31
g18
I791
sg21
I1001
sg28
I364
sg23
I946
sg25
I1266
ssI6
(dp32
g18
I1459
sg21
I2002
sg28
I1001
sg23
I1836
sg25
I1710
ssI7
(dp33
g18
I2047
sg21
I3004
sg28
I2002
sg23
I2665
sg25
I1722
ssI8
(dp34
g18
I2178
sg21
I3439
sg28
I3003
sg23
I2942
sg25
I1308
ssI9
(dp35
g18
I1749
sg21
I3024
sg28
I3432
sg23
I2485
sg25
I750
ssI10
(dp36
g18
I1045
sg21
I2037
sg28
I3003
sg23
I1602
sg25
I321
ssI11
(dp37
g18
I451
sg21
I1036
sg28
I2002
sg23
I780
sg25
I99
ssI12
(dp38
g18
I133
sg21
I385
sg28
I1001
sg23
I281
sg25
I20
ssI13
(dp39
g18
I24
sg21
I98
sg28
I364
sg23
I72
sg25
I2
ssI14
(dp40
g18
I2
sg21
I15
sg28
I91
sg23
I12
ssI15
(dp41
g21
I1
sg28
I14
sg23
I1
ssI16
(dp42
g28
I1
sss.