(dp0
S'AND'
p1
(dp2
I0
(dp3
cglitchresistor.emulator
Result
p4
(I3
tp5
Rp6
I1
ssI1
(dp7
g4
(I1
tp8
Rp9
I7
sg6
I9
ssI2
(dp10
g9
I83
sg6
I36
sg4
(I7
tp11
Rp12
I1
ssI3
(dp13
g9
I463
sg4
(I2
tp14
Rp15
I1
sg6
I84
sg12
I12
ssI4
(dp16
g4
(I8
tp17
Rp18
I1
sg9
I1613
sg15
I12
sg6
I126
sg12
I68
ssI5
(dp19
g18
I12
sg9
I3923
sg15
I68
sg6
I126
sg12
I239
ssI6
(dp20
g18
I66
sg9
I7043
sg15
I239
sg6
I84
sg12
I576
ssI7
(dp21
g18
I220
sg9
I9612
sg15
I576
sg6
I36
sg12
I996
ssI8
(dp22
g18
I495
sg9
I10110
sg15
I996
sg6
I9
sg12
I1260
ssI9
(dp23
g18
I792
sg9
I8217
sg15
I1260
sg6
I1
sg12
I1170
ssI10
(dp24
g18
I924
sg9
I5125
sg15
I1170
sg12
I789
ssI11
(dp25
g18
I792
sg9
I2411
sg15
I789
sg12
I376
ssI12
(dp26
g18
I495
sg9
I829
sg15
I376
sg12
I120
ssI13
(dp27
g18
I220
sg9
I197
sg15
I120
sg12
I23
ssI14
(dp28
g18
I66
sg9
I29
sg15
I23
sg12
I2
ssI15
(dp29
g18
I12
sg9
I2
sg15
I2
ssI16
(dp30
g18
I1
sssS'input'
p31
(dp32
S'bytes_to_trash'
p33
(lp34
I2
aI3
asS'code'
p35
S'# config:{"bytes_to_trash": "2,3"}\ncmp r0, r1\nblt .good\nmov r0, 0xdead\n.good:\nmov r1, 0xaaaa'
p36
sS'initial_code'
p37
(lp38
I136
aI66
aI1
aI219
aI77
aI246
aI173
aI96
aI74
aI246
aI170
aI33
asS'initial_bytes'
p39
(lp40
I1
aI219
asS'name'
p41
S'blt.S'
p42
ss.