(dp0
S'AND'
p1
(dp2
I0
(dp3
cglitchresistor.emulator
Result
p4
(I3
tp5
Rp6
I1
ssI1
(dp7
g4
(I1
tp8
Rp9
I4
sg6
I11
sg4
(I7
tp10
Rp11
I1
ssI2
(dp12
g9
I51
sg6
I55
sg11
I14
ssI3
(dp13
g9
I303
sg6
I165
sg11
I92
ssI4
(dp14
g4
(I8
tp15
Rp16
I1
sg9
I1113
sg6
I330
sg11
I376
ssI5
(dp17
g16
I12
sg9
I2827
sg6
I462
sg11
I1067
ssI6
(dp18
g16
I66
sg9
I5258
sg6
I462
sg11
I2222
ssI7
(dp19
g16
I220
sg9
I7392
sg6
I330
sg11
I3498
ssI8
(dp20
g16
I495
sg9
I7986
sg6
I165
sg11
I4224
ssI9
(dp21
g16
I792
sg9
I6666
sg6
I55
sg11
I3927
ssI10
(dp22
g16
I924
sg9
I4279
sg6
I11
sg11
I2794
ssI11
(dp23
g16
I792
sg9
I2079
sg6
I1
sg11
I1496
ssI12
(dp24
g16
I495
sg9
I741
sg11
I584
ssI13
(dp25
g16
I220
sg9
I183
sg11
I157
ssI14
(dp26
g16
I66
sg9
I28
sg11
I26
ssI15
(dp27
g16
I12
sg9
I2
sg11
I2
ssI16
(dp28
g16
I1
sssS'input'
p29
(dp30
S'bytes_to_trash'
p31
(lp32
I2
aI3
asS'code'
p33
S'# config:{"bytes_to_trash": "2,3"}\nsubs r0, r1, r7\nbmi .good\nmov r0, 0xdead\n.good:\nmov r1, 0xaaaa'
p34
sS'initial_code'
p35
(lp36
I200
aI27
aI1
aI212
aI77
aI246
aI173
aI96
aI74
aI246
aI170
aI33
asS'initial_bytes'
p37
(lp38
I1
aI212
asS'name'
p39
S'bmi.S'
p40
ss.