(dp0
S'input'
p1
(dp2
S'bytes_to_trash'
p3
(lp4
I2
aI3
asS'code'
p5
S'# config:{"bytes_to_trash": "2,3"}\nsubs r0, r1, r7\nbmi .good\nmov r0, 0xdead\n.good:\nmov r1, 0xaaaa'
p6
sS'initial_code'
p7
(lp8
I200
aI27
aI1
aI212
aI77
aI246
aI173
aI96
aI74
aI246
aI170
aI33
asS'initial_bytes'
p9
(lp10
I1
aI212
asS'name'
p11
S'bmi.S'
p12
ssS'OR'
p13
(dp14
I0
(dp15
cglitchresistor.emulator
Result
p16
(I8
tp17
Rp18
I1
ssI1
(dp19
g18
I5
sg16
(I1
tp20
Rp21
I3
sg16
(I4
tp22
Rp23
I2
sg16
(I7
tp24
Rp25
I6
ssI2
(dp26
g18
I12
sg21
I36
sg16
(I3
tp27
Rp28
I2
sg23
I25
sg25
I45
ssI3
(dp29
g18
I20
sg21
I199
sg28
I26
sg23
I148
sg25
I167
ssI4
(dp30
g18
I25
sg21
I672
sg28
I157
sg23
I551
sg25
I415
ssI5
(dp31
g18
I21
sg21
I1551
sg28
I584
sg23
I1441
sg25
I771
ssI6
(dp32
g18
I10
sg21
I2596
sg28
I1496
sg23
I2793
sg25
I1113
ssI7
(dp33
g18
I2
sg21
I3268
sg28
I2794
sg23
I4119
sg25
I1257
ssI8
(dp34
g21
I3173
sg28
I3927
sg23
I4669
sg25
I1101
ssI9
(dp35
g21
I2421
sg28
I4224
sg23
I4060
sg25
I735
ssI10
(dp36
g21
I1472
sg28
I3498
sg23
I2672
sg25
I366
ssI11
(dp37
g21
I718
sg28
I2222
sg23
I1296
sg25
I132
ssI12
(dp38
g21
I277
sg28
I1067
sg23
I444
sg25
I32
ssI13
(dp39
g21
I79
sg28
I376
sg23
I101
sg25
I4
ssI14
(dp40
g21
I14
sg28
I92
sg23
I14
ssI15
(dp41
g21
I1
sg28
I14
sg23
I1
ssI16
(dp42
g28
I1
sss.