(dp0
S'AND'
p1
(dp2
I0
(dp3
cglitchresistor.emulator
Result
p4
(I3
tp5
Rp6
I1
ssI1
(dp7
g4
(I1
tp8
Rp9
I5
sg6
I11
ssI2
(dp10
g9
I64
sg6
I55
sg4
(I7
tp11
Rp12
I1
ssI3
(dp13
g9
I382
sg6
I165
sg12
I13
ssI4
(dp14
g4
(I8
tp15
Rp16
I1
sg9
I1410
sg6
I330
sg12
I79
ssI5
(dp17
g16
I12
sg9
I3597
sg6
I462
sg12
I297
ssI6
(dp18
g16
I66
sg9
I6710
sg6
I462
sg12
I770
ssI7
(dp19
g16
I220
sg9
I9438
sg6
I330
sg12
I1452
ssI8
(dp20
g16
I495
sg9
I10164
sg6
I165
sg12
I2046
ssI9
(dp21
g16
I792
sg9
I8415
sg6
I55
sg12
I2178
ssI10
(dp22
g16
I924
sg9
I5324
sg6
I11
sg12
I1749
ssI11
(dp23
g16
I792
sg9
I2530
sg6
I1
sg12
I1045
ssI12
(dp24
g16
I495
sg9
I874
sg12
I451
ssI13
(dp25
g16
I220
sg9
I207
sg12
I133
ssI14
(dp26
g16
I66
sg9
I30
sg12
I24
ssI15
(dp27
g16
I12
sg9
I2
sg12
I2
ssI16
(dp28
g16
I1
sssS'input'
p29
(dp30
S'bytes_to_trash'
p31
(lp32
I2
aI3
asS'code'
p33
S'# config:{"bytes_to_trash": "2,3"}\ncmp r0, r1\nbne .fail\nmov r0, 0xdead\n.fail:\nmov r1, 0xaaaa'
p34
sS'initial_code'
p35
(lp36
I136
aI66
aI1
aI209
aI77
aI246
aI173
aI96
aI74
aI246
aI170
aI33
asS'initial_bytes'
p37
(lp38
I1
aI209
asS'name'
p39
S'bne.S'
p40
ss.