(dp0
S'AND'
p1
(dp2
I0
(dp3
cglitchresistor.emulator
Result
p4
(I3
tp5
Rp6
I1
ssI1
(dp7
g4
(I1
tp8
Rp9
I5
sg6
I10
sg4
(I7
tp10
Rp11
I1
ssI2
(dp12
g9
I61
sg6
I45
sg11
I14
ssI3
(dp13
g9
I348
sg6
I120
sg11
I92
ssI4
(dp14
g4
(I8
tp15
Rp16
I1
sg9
I1233
sg6
I210
sg11
I376
ssI5
(dp17
g16
I12
sg9
I3038
sg6
I252
sg11
I1066
ssI6
(dp18
g16
I66
sg9
I5520
sg6
I210
sg11
I2212
ssI7
(dp19
g16
I220
sg9
I7647
sg6
I120
sg11
I3453
ssI8
(dp20
g16
I495
sg9
I8226
sg6
I45
sg11
I4104
ssI9
(dp21
g16
I792
sg9
I6921
sg6
I10
sg11
I3717
ssI10
(dp22
g16
I924
sg9
I4541
sg6
I1
sg11
I2542
ssI11
(dp23
g16
I792
sg9
I2290
sg11
I1286
ssI12
(dp24
g16
I495
sg9
I861
sg11
I464
ssI13
(dp25
g16
I220
sg9
I228
sg11
I112
ssI14
(dp26
g16
I66
sg9
I38
sg11
I16
ssI15
(dp27
g16
I12
sg9
I3
sg11
I1
ssI16
(dp28
g16
I1
sssS'input'
p29
(dp30
S'bytes_to_trash'
p31
(lp32
I2
aI3
asS'code'
p33
S'# config:{"bytes_to_trash": "2,3"}\nadds r0, r1, r2\nBPL .good\nmov r0, 0xdead\n.good:\nmov r1, 0xaaaa'
p34
sS'initial_code'
p35
(lp36
I136
aI24
aI1
aI213
aI77
aI246
aI173
aI96
aI74
aI246
aI170
aI33
asS'initial_bytes'
p37
(lp38
I1
aI213
asS'name'
p39
S'bpl.S'
p40
ss.