(dp0
S'AND'
p1
(dp2
I0
(dp3
cglitchresistor.emulator
Result
p4
(I3
tp5
Rp6
I1
ssI1
(dp7
g4
(I1
tp8
Rp9
I6
sg6
I9
sg4
(I7
tp10
Rp11
I1
ssI2
(dp12
g9
I70
sg6
I36
sg11
I14
ssI3
(dp13
g9
I384
sg6
I84
sg11
I92
ssI4
(dp14
g9
I1316
sg4
(I2
tp15
Rp16
I1
sg6
I126
sg4
(I4
tp17
Rp18
I1
sg11
I375
sg4
(I8
tp19
Rp20
I1
ssI5
(dp21
g9
I3155
sg16
I11
sg6
I126
sg18
I10
sg11
I1054
sg20
I12
ssI6
(dp22
g9
I5609
sg16
I55
sg6
I84
sg18
I45
sg11
I2149
sg20
I66
ssI7
(dp23
g9
I7638
sg16
I165
sg6
I36
sg18
I120
sg11
I3261
sg20
I220
ssI8
(dp24
g9
I8100
sg16
I330
sg6
I9
sg18
I210
sg11
I3726
sg20
I495
ssI9
(dp25
g9
I6720
sg16
I462
sg6
I1
sg18
I252
sg11
I3213
sg20
I792
ssI10
(dp26
g20
I924
sg9
I4332
sg16
I462
sg18
I210
sg11
I2080
ssI11
(dp27
g20
I792
sg9
I2128
sg16
I330
sg18
I120
sg11
I998
ssI12
(dp28
g20
I495
sg9
I768
sg16
I165
sg18
I45
sg11
I347
ssI13
(dp29
g20
I220
sg9
I191
sg16
I55
sg18
I10
sg11
I84
ssI14
(dp30
g20
I66
sg9
I29
sg16
I11
sg18
I1
sg11
I13
ssI15
(dp31
g20
I12
sg9
I2
sg16
I1
sg11
I1
ssI16
(dp32
g20
I1
sssS'input'
p33
(dp34
S'bytes_to_trash'
p35
(lp36
I2
aI3
asS'code'
p37
S'# config:{"bytes_to_trash": "2,3"}\nadds r0, r0, r0\nBVC .good\nmov r0, 0xdead\n.good:\nmov r1, 0xaaaa'
p38
sS'initial_code'
p39
(lp40
I0
aI24
aI1
aI215
aI77
aI246
aI173
aI96
aI74
aI246
aI170
aI33
asS'initial_bytes'
p41
(lp42
I1
aI215
asS'name'
p43
S'bvc.S'
p44
ss.