(dp0
S'AND'
p1
(dp2
I0
(dp3
cglitchresistor.emulator
Result
p4
(I3
tp5
Rp6
I1
ssI1
(dp7
g4
(I1
tp8
Rp9
I5
sg6
I10
sg4
(I7
tp10
Rp11
I1
ssI2
(dp12
g9
I61
sg6
I45
sg11
I14
ssI3
(dp13
g9
I348
sg6
I120
sg11
I92
ssI4
(dp14
g4
(I8
tp15
Rp16
I1
sg9
I1233
sg4
(I2
tp17
Rp18
I1
sg6
I210
sg11
I375
ssI5
(dp19
g16
I12
sg9
I3038
sg18
I11
sg6
I252
sg11
I1055
ssI6
(dp20
g16
I66
sg9
I5520
sg18
I55
sg6
I210
sg11
I2157
ssI7
(dp21
g16
I220
sg9
I7647
sg18
I165
sg6
I120
sg11
I3288
ssI8
(dp22
g16
I495
sg9
I8226
sg18
I330
sg6
I45
sg11
I3774
ssI9
(dp23
g16
I792
sg9
I6921
sg18
I462
sg6
I10
sg11
I3255
ssI10
(dp24
g16
I924
sg9
I4541
sg18
I462
sg6
I1
sg11
I2080
ssI11
(dp25
g16
I792
sg9
I2290
sg18
I330
sg11
I956
ssI12
(dp26
g16
I495
sg9
I861
sg18
I165
sg11
I299
ssI13
(dp27
g16
I220
sg9
I228
sg18
I55
sg11
I57
ssI14
(dp28
g16
I66
sg9
I38
sg18
I11
sg11
I5
ssI15
(dp29
g16
I12
sg9
I3
sg18
I1
ssI16
(dp30
g16
I1
sssS'input'
p31
(dp32
S'bytes_to_trash'
p33
(lp34
I2
aI3
asS'code'
p35
S'# config:{"bytes_to_trash": "2,3"}\nadds r0, r7, r7\nBVS .good\nmov r0, 0xdead\n.good:\nmov r1, 0xaaaa'
p36
sS'initial_code'
p37
(lp38
I248
aI25
aI1
aI214
aI77
aI246
aI173
aI96
aI74
aI246
aI170
aI33
asS'initial_bytes'
p39
(lp40
I1
aI214
asS'name'
p41
S'bvs.S'
p42
ss.