(dp0
S'AND'
p1
(dp2
I0
(dp3
cglitchresistor.emulator
Result
p4
(I1
tp5
Rp6
I1
ssI1
(dp7
g6
I16
ssI2
(dp8
g6
I120
ssI3
(dp9
g6
I560
ssI4
(dp10
g6
I1819
sg4
(I7
tp11
Rp12
I1
ssI5
(dp13
g6
I4356
sg4
(I4
tp14
Rp15
I3
sg12
I9
ssI6
(dp16
g6
I7942
sg15
I29
sg12
I37
ssI7
(dp17
g6
I11220
sg15
I126
sg12
I94
ssI8
(dp18
g6
I12375
sg15
I324
sg12
I171
ssI9
(dp19
g6
I10648
sg15
I546
sg12
I246
ssI10
(dp20
g6
I7084
sg15
I630
sg12
I294
ssI11
(dp21
g6
I3576
sg15
I504
sg12
I288
ssI12
(dp22
g6
I1325
sg15
I276
sg12
I219
ssI13
(dp23
g6
I340
sg15
I99
sg12
I121
ssI14
(dp24
g6
I54
sg15
I21
sg12
I45
ssI15
(dp25
g6
I4
sg15
I2
sg12
I10
ssI16
(dp26
g12
I1
sssS'input'
p27
(dp28
S'bytes_to_trash'
p29
(lp30
I10
aI11
asS'code'
p31
S'# config:{"bytes_to_trash": "10,11"}\nbl .fn\nmov r1, 0xaaaa\n.end:\n    b .end\n.fn:\n    bx lr\n    mov r0, 0xdead\n'
p32
sS'initial_code'
p33
(lp34
I0
aI240
aI3
aI248
aI74
aI246
aI170
aI33
aI254
aI231
aI112
aI71
aI77
aI246
aI173
aI96
asS'initial_bytes'
p35
(lp36
I112
aI71
asS'name'
p37
S'bx.s'
p38
ssS'XOR'
p39
(dp40
I0
(dp41
g12
I1
ssI1
(dp42
g6
I6
sg4
(I2
tp43
Rp44
I1
sg15
I2
sg12
I7
ssI2
(dp45
g6
I66
sg44
I10
sg15
I15
sg12
I29
ssI3
(dp46
g6
I338
sg44
I55
sg4
(I3
tp47
Rp48
I1
sg15
I50
sg12
I116
ssI4
(dp49
g6
I1091
sg44
I199
sg48
I13
sg15
I118
sg12
I399
ssI5
(dp50
g6
I2516
sg44
I529
sg48
I75
sg15
I248
sg12
I1000
ssI6
(dp51
g6
I4421
sg44
I1079
sg48
I238
sg15
I477
sg12
I1793
ssI7
(dp52
g6
I6137
sg44
I1681
sg48
I504
sg15
I750
sg4
(I6
tp53
Rp54
I4
sg12
I2364
ssI8
(dp55
g6
I6810
sg44
I1998
sg48
I745
sg15
I896
sg54
I6
sg12
I2415
ssI9
(dp56
g6
I6023
sg44
I1857
sg48
I806
sg15
I817
sg54
I4
sg12
I1933
ssI10
(dp57
g6
I4204
sg44
I1303
sg48
I655
sg15
I583
sg54
I1
sg12
I1262
ssI11
(dp58
g6
I2262
sg44
I747
sg48
I414
sg15
I283
sg12
I662
ssI12
(dp59
g6
I912
sg44
I303
sg48
I230
sg15
I98
sg12
I277
ssI13
(dp60
g6
I248
sg44
I101
sg48
I113
sg15
I17
sg12
I81
ssI14
(dp61
g6
I44
sg44
I18
sg48
I43
sg15
I1
sg12
I14
ssI15
(dp62
g6
I3
sg44
I2
sg48
I10
sg12
I1
ssI16
(dp63
g48
I1
sssS'OR'
p64
(dp65
I0
(dp66
g12
I1
ssI1
(dp67
g6
I2
sg44
I1
sg12
I13
ssI2
(dp68
g6
I25
sg44
I14
sg15
I1
sg12
I80
ssI3
(dp69
g6
I145
sg44
I91
sg48
I1
sg15
I14
sg12
I309
ssI4
(dp70
g6
I518
sg44
I364
sg48
I13
sg15
I89
sg12
I836
ssI5
(dp71
g6
I1276
sg44
I1001
sg48
I80
sg15
I335
sg12
I1676
ssI6
(dp72
g6
I2299
sg44
I2002
sg48
I300
sg15
I832
sg12
I2575
ssI7
(dp73
g6
I3137
sg44
I3003
sg48
I757
sg15
I1447
sg12
I3096
ssI8
(dp74
g6
I3314
sg44
I3432
sg48
I1357
sg15
I1828
sg12
I2939
ssI9
(dp75
g6
I2748
sg44
I3003
sg48
I1786
sg15
I1716
sg12
I2187
ssI10
(dp76
g6
I1797
sg44
I2002
sg48
I1758
sg15
I1211
sg12
I1240
ssI11
(dp77
g6
I917
sg44
I1001
sg48
I1301
sg15
I642
sg12
I507
ssI12
(dp78
g6
I352
sg44
I364
sg48
I717
sg15
I251
sg12
I136
ssI13
(dp79
g6
I94
sg44
I91
sg48
I286
sg15
I69
sg12
I20
ssI14
(dp80
g6
I15
sg44
I14
sg48
I78
sg15
I12
sg12
I1
ssI15
(dp81
g6
I1
sg44
I1
sg48
I13
sg15
I1
ssI16
(dp82
g48
I1
sss.