(dp0
S'AND'
p1
(dp2
I0
(dp3
cglitchresistor.emulator
Result
p4
(I1
tp5
Rp6
I1
ssI1
(dp7
g6
I16
ssI2
(dp8
g6
I120
ssI3
(dp9
g6
I560
ssI4
(dp10
g6
I1820
ssI5
(dp11
g6
I4368
ssI6
(dp12
g6
I8007
sg4
(I4
tp13
Rp14
I1
ssI7
(dp15
g6
I11430
sg14
I9
sg4
(I7
tp16
Rp17
I1
ssI8
(dp18
g6
I12825
sg14
I36
sg17
I9
ssI9
(dp19
g6
I11320
sg14
I84
sg17
I36
ssI10
(dp20
g6
I7798
sg14
I126
sg17
I84
ssI11
(dp21
g6
I4116
sg14
I126
sg17
I126
ssI12
(dp22
g6
I1610
sg14
I84
sg17
I126
ssI13
(dp23
g6
I440
sg14
I36
sg17
I84
ssI14
(dp24
g6
I75
sg14
I9
sg17
I36
ssI15
(dp25
g6
I6
sg14
I1
sg17
I9
ssI16
(dp26
g17
I1
sssS'input'
p27
(dp28
S'bytes_to_trash'
p29
(lp30
I2
aI3
asS'code'
p31
S'# config:{"bytes_to_trash": "2,3"}\nadr r0, .good\nmov pc, r0\nmov r0, 0xdead\n.good:\nmov r1, 0xaaaa\n'
p32
sS'initial_code'
p33
(lp34
I1
aI160
aI135
aI70
aI77
aI246
aI173
aI96
aI74
aI246
aI170
aI33
asS'initial_bytes'
p35
(lp36
I135
aI70
asS'name'
p37
S'mov.s'
p38
ssS'XOR'
p39
(dp40
I0
(dp41
g17
I1
ssI1
(dp42
g6
I9
sg4
(I2
tp43
Rp44
I1
sg14
I5
sg17
I1
ssI2
(dp45
g6
I83
sg44
I10
sg14
I12
sg17
I15
ssI3
(dp46
g6
I381
sg44
I50
sg4
(I3
tp47
Rp48
I2
sg14
I41
sg17
I86
ssI4
(dp49
g6
I1157
sg44
I181
sg48
I20
sg14
I114
sg17
I348
ssI5
(dp50
g6
I2568
sg44
I515
sg48
I95
sg14
I282
sg17
I908
ssI6
(dp51
g6
I4431
sg44
I1070
sg48
I274
sg14
I549
sg17
I1684
ssI7
(dp52
g6
I6078
sg44
I1669
sg48
I537
sg14
I815
sg17
I2341
ssI8
(dp53
g6
I6727
sg44
I1989
sg48
I760
sg14
I918
sg17
I2476
ssI9
(dp54
g6
I5918
sg44
I1877
sg48
I805
sg14
I799
sg4
(I6
tp55
Rp56
I2
sg17
I2039
ssI10
(dp57
g6
I4133
sg44
I1360
sg48
I654
sg14
I529
sg56
I7
sg17
I1325
ssI11
(dp58
g6
I2188
sg44
I810
sg48
I420
sg14
I252
sg56
I9
sg17
I689
ssI12
(dp59
g6
I872
sg44
I333
sg48
I206
sg14
I103
sg56
I3
sg17
I303
ssI13
(dp60
g6
I236
sg44
I110
sg48
I76
sg14
I19
sg56
I1
sg17
I118
ssI14
(dp61
g6
I40
sg44
I18
sg48
I18
sg14
I5
sg17
I39
ssI15
(dp62
g6
I3
sg44
I2
sg48
I2
sg17
I9
ssI16
(dp63
g17
I1
sssS'OR'
p64
(dp65
I0
(dp66
g17
I1
ssI1
(dp67
g6
I3
sg44
I1
sg14
I4
sg17
I8
ssI2
(dp68
g6
I36
sg44
I13
sg14
I37
sg17
I34
ssI3
(dp69
g6
I203
sg44
I79
sg48
I2
sg14
I162
sg17
I114
ssI4
(dp70
g6
I707
sg44
I304
sg48
I24
sg14
I457
sg17
I328
ssI5
(dp71
g6
I1690
sg44
I832
sg48
I134
sg14
I957
sg17
I755
ssI6
(dp72
g6
I2929
sg44
I1699
sg48
I458
sg14
I1608
sg17
I1314
ssI7
(dp73
g6
I3809
sg44
I2631
sg48
I1066
sg14
I2231
sg17
I1703
ssI8
(dp74
g6
I3812
sg44
I3096
sg48
I1784
sg14
I2532
sg17
I1646
ssI9
(dp75
g6
I2997
sg44
I2757
sg48
I2213
sg14
I2284
sg17
I1189
ssI10
(dp76
g6
I1876
sg44
I1843
sg48
I2067
sg14
I1583
sg17
I639
ssI11
(dp77
g6
I931
sg44
I913
sg48
I1459
sg14
I814
sg17
I251
ssI12
(dp78
g6
I353
sg44
I328
sg48
I771
sg14
I299
sg17
I69
ssI13
(dp79
g6
I94
sg44
I82
sg48
I297
sg14
I75
sg17
I12
ssI14
(dp80
g6
I15
sg44
I13
sg48
I79
sg14
I12
sg17
I1
ssI15
(dp81
g6
I1
sg44
I1
sg48
I13
sg14
I1
ssI16
(dp82
g48
I1
sss.