(dp0
S'AND'
p1
(dp2
I0
(dp3
cglitchresistor.emulator
Result
p4
(I1
tp5
Rp6
I1
ssI1
(dp7
g6
I16
ssI2
(dp8
g6
I120
ssI3
(dp9
g6
I560
ssI4
(dp10
g6
I1819
sg4
(I3
tp11
Rp12
I1
ssI5
(dp13
g6
I4357
sg12
I10
sg4
(I7
tp14
Rp15
I1
ssI6
(dp16
g6
I7952
sg12
I45
sg15
I11
ssI7
(dp17
g6
I11265
sg12
I120
sg15
I55
ssI8
(dp18
g6
I12495
sg12
I210
sg15
I165
ssI9
(dp19
g6
I10858
sg12
I252
sg15
I330
ssI10
(dp20
g6
I7336
sg12
I210
sg15
I462
ssI11
(dp21
g6
I3786
sg12
I120
sg15
I462
ssI12
(dp22
g6
I1445
sg12
I45
sg15
I330
ssI13
(dp23
g6
I385
sg12
I10
sg15
I165
ssI14
(dp24
g6
I64
sg12
I1
sg15
I55
ssI15
(dp25
g6
I5
sg15
I11
ssI16
(dp26
g15
I1
sssS'input'
p27
(dp28
S'bytes_to_trash'
p29
(lp30
I12
aI13
asS'code'
p31
S'# config:{"bytes_to_trash": "12,13"}\nbl .next\nmov r1, 0xaaaa\n.end:\n    b .end\n.next:\n    push {lr}\n    pop {pc}\n    mov r0, 0xdead\n'
p32
sS'initial_code'
p33
(lp34
I0
aI240
aI3
aI248
aI74
aI246
aI170
aI33
aI254
aI231
aI0
aI181
aI0
aI189
aI77
aI246
aI173
aI96
asS'initial_bytes'
p35
(lp36
I0
aI189
asS'name'
p37
S'pop.s'
p38
ssS'XOR'
p39
(dp40
I0
(dp41
g15
I1
ssI1
(dp42
g6
I6
sg12
I1
sg4
(I4
tp43
Rp44
I8
sg15
I1
ssI2
(dp45
g6
I60
sg4
(I2
tp46
Rp47
I5
sg12
I15
sg44
I29
sg15
I11
ssI3
(dp48
g6
I284
sg47
I49
sg12
I81
sg44
I69
sg15
I77
ssI4
(dp49
g6
I945
sg47
I216
sg12
I267
sg44
I146
sg15
I246
ssI5
(dp50
g6
I2286
sg47
I672
sg12
I567
sg44
I254
sg15
I589
ssI6
(dp51
g6
I4197
sg47
I1259
sg12
I834
sg44
I561
sg4
(I6
tp52
Rp53
I4
sg15
I1153
ssI7
(dp54
g6
I5981
sg47
I1866
sg12
I878
sg44
I862
sg53
I6
sg15
I1847
ssI8
(dp55
g6
I6789
sg47
I2067
sg12
I656
sg44
I966
sg53
I4
sg15
I2388
ssI9
(dp56
g6
I6096
sg47
I1764
sg12
I365
sg44
I797
sg53
I1
sg15
I2417
ssI10
(dp57
g6
I4351
sg47
I1141
sg12
I156
sg44
I483
sg15
I1877
ssI11
(dp58
g6
I2453
sg47
I542
sg12
I58
sg44
I200
sg15
I1115
ssI12
(dp59
g6
I1068
sg47
I183
sg12
I13
sg44
I57
sg15
I499
ssI13
(dp60
g6
I349
sg47
I39
sg12
I2
sg44
I12
sg15
I158
ssI14
(dp61
g6
I78
sg47
I4
sg44
I4
sg15
I34
ssI15
(dp62
g6
I12
sg15
I4
ssI16
(dp63
g6
I1
sssS'OR'
p64
(dp65
I0
(dp66
g15
I1
ssI1
(dp67
g6
I1
sg12
I1
sg44
I8
sg15
I6
ssI2
(dp68
g6
I13
sg12
I16
sg44
I76
sg15
I15
ssI3
(dp69
g6
I68
sg12
I111
sg44
I344
sg15
I37
ssI4
(dp70
g6
I215
sg12
I470
sg44
I986
sg15
I149
ssI5
(dp71
g6
I502
sg47
I56
sg12
I1385
sg44
I1940
sg15
I485
ssI6
(dp72
g6
I953
sg47
I364
sg12
I3018
sg44
I2638
sg53
I4
sg15
I1031
ssI7
(dp73
g6
I1478
sg47
I1016
sg12
I5011
sg44
I2416
sg53
I30
sg15
I1489
ssI8
(dp74
g6
I1802
sg47
I1589
sg12
I6436
sg44
I1414
sg53
I100
sg15
I1529
ssI9
(dp75
g6
I1663
sg47
I1526
sg12
I6435
sg44
I476
sg53
I195
sg15
I1145
ssI10
(dp76
g6
I1127
sg47
I931
sg12
I5005
sg44
I70
sg53
I246
sg15
I629
ssI11
(dp77
g6
I542
sg47
I364
sg12
I3003
sg53
I209
sg15
I250
ssI12
(dp78
g6
I175
sg47
I91
sg12
I1365
sg53
I120
sg15
I69
ssI13
(dp79
g6
I34
sg47
I14
sg12
I455
sg53
I45
sg15
I12
ssI14
(dp80
g6
I3
sg47
I1
sg12
I105
sg53
I10
sg15
I1
ssI15
(dp81
g12
I15
sg53
I1
ssI16
(dp82
g12
I1
sss.