(dp0
S'AND'
p1
(dp2
I0
(dp3
cglitchresistor.emulator
Result
p4
(I1
tp5
Rp6
I1
ssI1
(dp7
g6
I32
ssI2
(dp8
g4
(I8
tp9
Rp10
I1
sg6
I495
ssI3
(dp11
g10
I29
sg6
I4931
ssI4
(dp12
g10
I407
sg6
I35553
ssI5
(dp13
g10
I3682
sg6
I197694
ssI6
(dp14
g10
I24129
sg6
I882063
ssI7
(dp15
g10
I122031
sg6
I3243825
ssI8
(dp16
g10
I495495
sg6
I10022805
ssI9
(dp17
g10
I1659060
sg6
I26389740
ssI10
(dp18
g10
I4668885
sg6
I59843355
ssI11
(dp19
g10
I11199045
sg6
I117825435
ssI12
(dp20
g10
I23138115
sg6
I202654725
ssI13
(dp21
g10
I41504190
sg6
I305869410
ssI14
(dp22
g10
I65019045
sg6
I406416555
ssI15
(dp23
g10
I89338095
sg6
I476384625
ssI16
(dp24
g10
I107980515
sg6
I493099875
ssI17
(dp25
g10
I115000920
sg6
I450721800
ssI18
(dp26
g10
I107980515
sg6
I363455085
ssI19
(dp27
g10
I89338095
sg6
I258035505
ssI20
(dp28
g10
I65019045
sg6
I160773795
ssI21
(dp29
g10
I41504190
sg6
I87520290
ssI22
(dp30
g10
I23138115
sg6
I41374125
ssI23
(dp31
g10
I11199045
sg6
I16849755
ssI24
(dp32
g10
I4668885
sg6
I5849415
ssI25
(dp33
g10
I1659060
sg6
I1706796
ssI26
(dp34
g10
I495495
sg6
I410697
ssI27
(dp35
g10
I122031
sg6
I79345
ssI28
(dp36
g10
I24129
sg6
I11831
ssI29
(dp37
g10
I3682
sg6
I1278
ssI30
(dp38
g10
I407
sg6
I89
ssI31
(dp39
g10
I29
sg6
I3
ssI32
(dp40
g10
I1
sssS'input'
p41
(dp42
S'bytes_to_trash'
p43
(lp44
I4
aI5
aI6
aI7
asS'code'
p45
S'# config:{"bytes_to_trash": "4,5,6,7", "arch":2}\ncmp r0, r5\nbge .good\nmov r0, 0xdead\n.good:\nmov r1, 0xaaaa'
p46
sS'initial_code'
p47
(lp48
I5
aI0
aI80
aI225
aI0
aI0
aI0
aI170
aI173
aI14
aI13
aI227
aI170
aI26
aI10
aI227
asS'initial_bytes'
p49
(lp50
I0
aI0
aI0
aI170
asS'name'
p51
S'bge.s'
p52
ss.