(dp0
S'AND'
p1
(dp2
I0
(dp3
cglitchresistor.emulator
Result
p4
(I1
tp5
Rp6
I1
ssI1
(dp7
g6
I32
ssI2
(dp8
g6
I496
ssI3
(dp9
g4
(I8
tp10
Rp11
I2
sg6
I4958
ssI4
(dp12
g11
I55
sg6
I35905
ssI5
(dp13
g11
I730
sg6
I200646
ssI6
(dp14
g11
I6228
sg6
I899964
ssI7
(dp15
g11
I38376
sg6
I3327480
ssI8
(dp16
g11
I181935
sg6
I10336365
ssI9
(dp17
g11
I690300
sg6
I27358500
ssI10
(dp18
g11
I2152800
sg6
I62359440
ssI11
(dp19
g11
I5624190
sg6
I123400290
ssI12
(dp20
g11
I12481755
sg6
I213311085
ssI13
(dp21
g11
I23779470
sg6
I323594130
ssI14
(dp22
g11
I39198900
sg6
I432236700
ssI15
(dp23
g11
I56241900
sg6
I509480820
ssI16
(dp24
g11
I70538355
sg6
I530542035
ssI17
(dp25
g11
I77558760
sg6
I488163960
ssI18
(dp26
g11
I74884320
sg6
I396551280
ssI19
(dp27
g11
I63517950
sg6
I283855650
ssI20
(dp28
g11
I47294325
sg6
I178498515
ssI21
(dp29
g11
I30847830
sg6
I98176650
ssI22
(dp30
g11
I17563260
sg6
I46948980
ssI23
(dp31
g11
I8682960
sg6
I19365840
ssI24
(dp32
g11
I3700125
sg6
I6818175
ssI25
(dp33
g11
I1345500
sg6
I2020356
ssI26
(dp34
g11
I411840
sg6
I494352
ssI27
(dp35
g11
I104130
sg6
I97246
ssI28
(dp36
g11
I21177
sg6
I14783
ssI29
(dp37
g11
I3330
sg6
I1630
ssI30
(dp38
g11
I380
sg6
I116
ssI31
(dp39
g11
I28
sg6
I4
ssI32
(dp40
g11
I1
sssS'input'
p41
(dp42
S'bytes_to_trash'
p43
(lp44
I4
aI5
aI6
aI7
asS'code'
p45
S'# config:{"bytes_to_trash": "4,5,6,7", "arch":2}\ncmp r0, r1\nble .good\nmov r0, 0xdead\n.good:\nmov r1, 0xaaaa'
p46
sS'initial_code'
p47
(lp48
I1
aI0
aI80
aI225
aI0
aI0
aI0
aI218
aI173
aI14
aI13
aI227
aI170
aI26
aI10
aI227
asS'initial_bytes'
p49
(lp50
I0
aI0
aI0
aI218
asS'name'
p51
S'ble.s'
p52
ss.