(dp0
S'AND'
p1
(dp2
I0
(dp3
cglitchresistor.emulator
Result
p4
(I1
tp5
Rp6
I1
ssI1
(dp7
g6
I32
ssI2
(dp8
g6
I496
ssI3
(dp9
g4
(I8
tp10
Rp11
I1
sg6
I4959
ssI4
(dp12
g11
I29
sg6
I35931
ssI5
(dp13
g11
I406
sg6
I200970
ssI6
(dp14
g11
I3654
sg6
I902538
ssI7
(dp15
g11
I23751
sg6
I3342105
ssI8
(dp16
g11
I118755
sg6
I10399545
ssI9
(dp17
g11
I475020
sg6
I27573780
ssI10
(dp18
g11
I1560780
sg6
I62951460
ssI11
(dp19
g11
I4292145
sg6
I124732335
ssI12
(dp20
g11
I10015005
sg6
I215777835
ssI13
(dp21
g11
I20030010
sg6
I327343590
ssI14
(dp22
g11
I34597290
sg6
I436838310
ssI15
(dp23
g11
I51895935
sg6
I513826785
ssI16
(dp24
g11
I67863915
sg6
I533216475
ssI17
(dp25
g11
I77558760
sg6
I488163960
ssI18
(dp26
g11
I77558760
sg6
I393876840
ssI19
(dp27
g11
I67863915
sg6
I279509685
ssI20
(dp28
g11
I51895935
sg6
I173896905
ssI21
(dp29
g11
I34597290
sg6
I94427190
ssI22
(dp30
g11
I20030010
sg6
I44482230
ssI23
(dp31
g11
I10015005
sg6
I18033795
ssI24
(dp32
g11
I4292145
sg6
I6226155
ssI25
(dp33
g11
I1560780
sg6
I1805076
ssI26
(dp34
g11
I475020
sg6
I431172
ssI27
(dp35
g11
I118755
sg6
I82621
ssI28
(dp36
g11
I23751
sg6
I12209
ssI29
(dp37
g11
I3654
sg6
I1306
ssI30
(dp38
g11
I406
sg6
I90
ssI31
(dp39
g11
I29
sg6
I3
ssI32
(dp40
g11
I1
sssS'input'
p41
(dp42
S'bytes_to_trash'
p43
(lp44
I4
aI5
aI6
aI7
asS'code'
p45
S'# config:{"bytes_to_trash": "4,5,6,7", "arch":2}\ncmp r0, r1\nbls .good\nmov r0, 0xdead\n.good:\nmov r1, 0xaaaa'
p46
sS'initial_code'
p47
(lp48
I1
aI0
aI80
aI225
aI0
aI0
aI0
aI154
aI173
aI14
aI13
aI227
aI170
aI26
aI10
aI227
asS'initial_bytes'
p49
(lp50
I0
aI0
aI0
aI154
asS'name'
p51
S'bls.s'
p52
ss.